
int.OR1K.elf:     file format elf32-or32

Disassembly of section .text:

00000000 <_start-0x100>:
	...

00000100 <_start>:
     100:	9c 20 ff f0 	l.addi r1,r0,0xfffffff0
     104:	9c 41 00 00 	l.addi r2,r1,0x0
     108:	b4 60 00 11 	l.mfspr r3,r0,0x11
     10c:	a8 63 00 04 	l.ori r3,r3,0x4
     110:	c0 00 18 11 	l.mtspr r0,r3,0x11
     114:	18 80 00 00 	l.movhi r4,0x0
     118:	9c 80 48 00 	l.addi r4,r0,0x4800
     11c:	18 a0 ff ff 	l.movhi r5,0xffff
     120:	9c a5 ff ff 	l.addi r5,r5,0xffffffff
     124:	c0 04 28 00 	l.mtspr r4,r5,0x0
     128:	04 00 04 a6 	l.jal 13c0 <_main>
     12c:	15 00 00 00 	l.nop 0x0
     130:	04 00 03 b4 	l.jal 1000 <__exit>
     134:	15 00 00 00 	l.nop 0x0
	...
     800:	9c 21 ff 04 	l.addi r1,r1,0xffffff04
     804:	d4 01 f8 74 	l.sw 0x74(r1),r31
     808:	d4 01 f0 70 	l.sw 0x70(r1),r30
     80c:	d4 01 e8 6c 	l.sw 0x6c(r1),r29
     810:	d4 01 e0 68 	l.sw 0x68(r1),r28
     814:	d4 01 d8 64 	l.sw 0x64(r1),r27
     818:	d4 01 d0 60 	l.sw 0x60(r1),r26
     81c:	d4 01 c8 5c 	l.sw 0x5c(r1),r25
     820:	d4 01 c0 58 	l.sw 0x58(r1),r24
     824:	d4 01 b8 54 	l.sw 0x54(r1),r23
     828:	d4 01 b0 50 	l.sw 0x50(r1),r22
     82c:	d4 01 a8 4c 	l.sw 0x4c(r1),r21
     830:	d4 01 a0 48 	l.sw 0x48(r1),r20
     834:	d4 01 98 44 	l.sw 0x44(r1),r19
     838:	d4 01 90 40 	l.sw 0x40(r1),r18
     83c:	d4 01 88 3c 	l.sw 0x3c(r1),r17
     840:	d4 01 80 38 	l.sw 0x38(r1),r16
     844:	d4 01 78 34 	l.sw 0x34(r1),r15
     848:	d4 01 70 30 	l.sw 0x30(r1),r14
     84c:	d4 01 68 2c 	l.sw 0x2c(r1),r13
     850:	d4 01 60 28 	l.sw 0x28(r1),r12
     854:	d4 01 58 24 	l.sw 0x24(r1),r11
     858:	d4 01 50 20 	l.sw 0x20(r1),r10
     85c:	d4 01 48 1c 	l.sw 0x1c(r1),r9
     860:	d4 01 40 18 	l.sw 0x18(r1),r8
     864:	d4 01 38 14 	l.sw 0x14(r1),r7
     868:	d4 01 30 10 	l.sw 0x10(r1),r6
     86c:	d4 01 28 0c 	l.sw 0xc(r1),r5
     870:	d4 01 20 08 	l.sw 0x8(r1),r4
     874:	d4 01 18 04 	l.sw 0x4(r1),r3
     878:	d4 01 10 00 	l.sw 0x0(r1),r2
     87c:	04 00 01 e3 	l.jal 1008 <_int_handler>
     880:	87 e1 00 74 	l.lwz r31,0x74(r1)
     884:	87 c1 00 70 	l.lwz r30,0x70(r1)
     888:	87 a1 00 6c 	l.lwz r29,0x6c(r1)
     88c:	87 81 00 68 	l.lwz r28,0x68(r1)
     890:	87 61 00 64 	l.lwz r27,0x64(r1)
     894:	87 41 00 60 	l.lwz r26,0x60(r1)
     898:	87 21 00 5c 	l.lwz r25,0x5c(r1)
     89c:	87 01 00 58 	l.lwz r24,0x58(r1)
     8a0:	86 e1 00 54 	l.lwz r23,0x54(r1)
     8a4:	86 c1 00 50 	l.lwz r22,0x50(r1)
     8a8:	86 a1 00 4c 	l.lwz r21,0x4c(r1)
     8ac:	86 81 00 48 	l.lwz r20,0x48(r1)
     8b0:	86 61 00 44 	l.lwz r19,0x44(r1)
     8b4:	86 41 00 40 	l.lwz r18,0x40(r1)
     8b8:	86 21 00 3c 	l.lwz r17,0x3c(r1)
     8bc:	86 01 00 38 	l.lwz r16,0x38(r1)
     8c0:	85 e1 00 34 	l.lwz r15,0x34(r1)
     8c4:	85 c1 00 30 	l.lwz r14,0x30(r1)
     8c8:	85 a1 00 2c 	l.lwz r13,0x2c(r1)
     8cc:	85 81 00 28 	l.lwz r12,0x28(r1)
     8d0:	85 61 00 24 	l.lwz r11,0x24(r1)
     8d4:	85 41 00 20 	l.lwz r10,0x20(r1)
     8d8:	85 21 00 1c 	l.lwz r9,0x1c(r1)
     8dc:	85 01 00 18 	l.lwz r8,0x18(r1)
     8e0:	84 e1 00 14 	l.lwz r7,0x14(r1)
     8e4:	84 c1 00 10 	l.lwz r6,0x10(r1)
     8e8:	84 a1 00 0c 	l.lwz r5,0xc(r1)
     8ec:	84 81 00 08 	l.lwz r4,0x8(r1)
     8f0:	84 61 00 04 	l.lwz r3,0x4(r1)
     8f4:	84 41 00 00 	l.lwz r2,0x0(r1)
     8f8:	9c 21 00 fc 	l.addi r1,r1,0xfc
     8fc:	15 00 00 00 	l.nop 0x0
     900:	24 00 00 00 	l.rfe 
	...
     ffc:	15 00 00 00 	l.nop 0x0

00001000 <__exit>:
    1000:	00 00 00 00 	l.j 1000 <__exit>
    1004:	15 00 00 00 	l.nop 0x0

00001008 <_int_handler>:
    1008:	9c 21 ff ac 	l.addi r1,r1,0xffffffac
    100c:	d4 01 10 10 	l.sw 0x10(r1),r2
    1010:	9c 41 00 54 	l.addi r2,r1,0x54
    1014:	d4 01 48 0c 	l.sw 0xc(r1),r9
    1018:	18 60 00 00 	l.movhi r3,0x0
    101c:	a8 63 f8 34 	l.ori r3,r3,0xf834
    1020:	d7 e2 1f f8 	l.sw 0xfffffff8(r2),r3
    1024:	18 80 00 00 	l.movhi r4,0x0
    1028:	a8 84 f8 34 	l.ori r4,r4,0xf834
    102c:	d7 e2 27 f4 	l.sw 0xfffffff4(r2),r4
    1030:	84 62 ff f4 	l.lwz r3,0xfffffff4(r2)
    1034:	84 63 00 00 	l.lwz r3,0x0(r3)
    1038:	d7 e2 1f f0 	l.sw 0xfffffff0(r2),r3
    103c:	84 82 ff f0 	l.lwz r4,0xfffffff0(r2)
    1040:	9c 84 00 01 	l.addi r4,r4,0x1
    1044:	d7 e2 27 ec 	l.sw 0xffffffec(r2),r4
    1048:	84 82 ff ec 	l.lwz r4,0xffffffec(r2)
    104c:	84 62 ff f8 	l.lwz r3,0xfffffff8(r2)
    1050:	d4 03 20 00 	l.sw 0x0(r3),r4
    1054:	18 60 90 00 	l.movhi r3,0x9000
    1058:	a8 63 00 02 	l.ori r3,r3,0x2
    105c:	d7 e2 1f e8 	l.sw 0xffffffe8(r2),r3
    1060:	84 82 ff e8 	l.lwz r4,0xffffffe8(r2)
    1064:	8c 84 00 00 	l.lbz r4,0x0(r4)
    1068:	db e2 27 fe 	l.sb 0xfffffffe(r2),r4
    106c:	18 60 00 00 	l.movhi r3,0x0
    1070:	a8 63 ca ac 	l.ori r3,r3,0xcaac
    1074:	d4 01 18 00 	l.sw 0x0(r1),r3
    1078:	90 82 ff fe 	l.lbs r4,0xfffffffe(r2)
    107c:	d7 e2 27 e4 	l.sw 0xffffffe4(r2),r4
    1080:	84 62 ff e4 	l.lwz r3,0xffffffe4(r2)
    1084:	d4 01 18 04 	l.sw 0x4(r1),r3
    1088:	18 80 00 00 	l.movhi r4,0x0
    108c:	a8 84 f8 34 	l.ori r4,r4,0xf834
    1090:	d7 e2 27 e0 	l.sw 0xffffffe0(r2),r4
    1094:	84 62 ff e0 	l.lwz r3,0xffffffe0(r2)
    1098:	84 63 00 00 	l.lwz r3,0x0(r3)
    109c:	d4 01 18 08 	l.sw 0x8(r1),r3
    10a0:	04 00 00 f8 	l.jal 1480 <_printf>
    10a4:	15 00 00 00 	l.nop 0x0
    10a8:	8c 82 ff fe 	l.lbz r4,0xfffffffe(r2)
    10ac:	d7 e2 27 dc 	l.sw 0xffffffdc(r2),r4
    10b0:	84 62 ff dc 	l.lwz r3,0xffffffdc(r2)
    10b4:	b8 63 00 42 	l.srli r3,r3,0x2
    10b8:	d7 e2 1f d8 	l.sw 0xffffffd8(r2),r3
    10bc:	84 82 ff d8 	l.lwz r4,0xffffffd8(r2)
    10c0:	a4 84 00 01 	l.andi r4,r4,0x1
    10c4:	d7 e2 27 d4 	l.sw 0xffffffd4(r2),r4
    10c8:	84 62 ff d4 	l.lwz r3,0xffffffd4(r2)
    10cc:	bc 03 00 00 	l.sfeqi r3,0x0
    10d0:	10 00 00 11 	l.bf 1114 <_int_handler+0x10c>
    10d4:	15 00 00 00 	l.nop 0x0
    10d8:	18 80 90 00 	l.movhi r4,0x9000
    10dc:	a8 84 00 00 	l.ori r4,r4,0x0
    10e0:	d7 e2 27 d0 	l.sw 0xffffffd0(r2),r4
    10e4:	84 62 ff d0 	l.lwz r3,0xffffffd0(r2)
    10e8:	8c 63 00 00 	l.lbz r3,0x0(r3)
    10ec:	db e2 1f ff 	l.sb 0xffffffff(r2),r3
    10f0:	18 80 00 00 	l.movhi r4,0x0
    10f4:	a8 84 ca cb 	l.ori r4,r4,0xcacb
    10f8:	d4 01 20 00 	l.sw 0x0(r1),r4
    10fc:	90 62 ff ff 	l.lbs r3,0xffffffff(r2)
    1100:	d7 e2 1f cc 	l.sw 0xffffffcc(r2),r3
    1104:	84 82 ff cc 	l.lwz r4,0xffffffcc(r2)
    1108:	d4 01 20 04 	l.sw 0x4(r1),r4
    110c:	04 00 00 dd 	l.jal 1480 <_printf>
    1110:	15 00 00 00 	l.nop 0x0
    1114:	8c 62 ff fe 	l.lbz r3,0xfffffffe(r2)
    1118:	d7 e2 1f c8 	l.sw 0xffffffc8(r2),r3
    111c:	84 82 ff c8 	l.lwz r4,0xffffffc8(r2)
    1120:	b8 84 00 41 	l.srli r4,r4,0x1
    1124:	d7 e2 27 c4 	l.sw 0xffffffc4(r2),r4
    1128:	84 62 ff c4 	l.lwz r3,0xffffffc4(r2)
    112c:	a4 63 00 01 	l.andi r3,r3,0x1
    1130:	d7 e2 1f c0 	l.sw 0xffffffc0(r2),r3
    1134:	84 82 ff c0 	l.lwz r4,0xffffffc0(r2)
    1138:	bc 04 00 00 	l.sfeqi r4,0x0
    113c:	10 00 00 07 	l.bf 1158 <_int_handler+0x150>
    1140:	15 00 00 00 	l.nop 0x0
    1144:	18 60 00 00 	l.movhi r3,0x0
    1148:	a8 63 ca e2 	l.ori r3,r3,0xcae2
    114c:	d4 01 18 00 	l.sw 0x0(r1),r3
    1150:	04 00 00 cc 	l.jal 1480 <_printf>
    1154:	15 00 00 00 	l.nop 0x0
    1158:	85 21 00 0c 	l.lwz r9,0xc(r1)
    115c:	84 41 00 10 	l.lwz r2,0x10(r1)
    1160:	44 00 48 00 	l.jr r9
    1164:	9c 21 00 54 	l.addi r1,r1,0x54

00001168 <_enableUart>:
    1168:	9c 21 ff f0 	l.addi r1,r1,0xfffffff0
    116c:	d4 01 10 08 	l.sw 0x8(r1),r2
    1170:	9c 41 00 10 	l.addi r2,r1,0x10
    1174:	d4 01 48 04 	l.sw 0x4(r1),r9
    1178:	18 60 00 00 	l.movhi r3,0x0
    117c:	a8 63 ca f2 	l.ori r3,r3,0xcaf2
    1180:	d4 01 18 00 	l.sw 0x0(r1),r3
    1184:	04 00 00 bf 	l.jal 1480 <_printf>
    1188:	15 00 00 00 	l.nop 0x0
    118c:	18 80 90 00 	l.movhi r4,0x9000
    1190:	a8 84 00 01 	l.ori r4,r4,0x1
    1194:	d7 e2 27 fc 	l.sw 0xfffffffc(r2),r4
    1198:	9c 80 00 03 	l.addi r4,r0,0x3
    119c:	84 62 ff fc 	l.lwz r3,0xfffffffc(r2)
    11a0:	d8 03 20 00 	l.sb 0x0(r3),r4
    11a4:	85 21 00 04 	l.lwz r9,0x4(r1)
    11a8:	84 41 00 08 	l.lwz r2,0x8(r1)
    11ac:	44 00 48 00 	l.jr r9
    11b0:	9c 21 00 10 	l.addi r1,r1,0x10

000011b4 <_sendString>:
    11b4:	9c 21 ff 94 	l.addi r1,r1,0xffffff94
    11b8:	d4 01 10 10 	l.sw 0x10(r1),r2
    11bc:	9c 41 00 6c 	l.addi r2,r1,0x6c
    11c0:	d4 01 48 0c 	l.sw 0xc(r1),r9
    11c4:	d7 e2 1f fc 	l.sw 0xfffffffc(r2),r3
    11c8:	84 62 ff fc 	l.lwz r3,0xfffffffc(r2)
    11cc:	d7 e2 1f f8 	l.sw 0xfffffff8(r2),r3
    11d0:	18 80 00 00 	l.movhi r4,0x0
    11d4:	a8 84 cb 06 	l.ori r4,r4,0xcb06
    11d8:	d4 01 20 00 	l.sw 0x0(r1),r4
    11dc:	84 62 ff f8 	l.lwz r3,0xfffffff8(r2)
    11e0:	d4 01 18 04 	l.sw 0x4(r1),r3
    11e4:	04 00 00 a7 	l.jal 1480 <_printf>
    11e8:	15 00 00 00 	l.nop 0x0
    11ec:	84 82 ff f8 	l.lwz r4,0xfffffff8(r2)
    11f0:	d7 e2 27 ec 	l.sw 0xffffffec(r2),r4
    11f4:	84 62 ff ec 	l.lwz r3,0xffffffec(r2)
    11f8:	90 63 00 00 	l.lbs r3,0x0(r3)
    11fc:	d7 e2 1f e8 	l.sw 0xffffffe8(r2),r3
    1200:	84 82 ff e8 	l.lwz r4,0xffffffe8(r2)
    1204:	bc 04 00 00 	l.sfeqi r4,0x0
    1208:	10 00 00 54 	l.bf 1358 <_sendString+0x1a4>
    120c:	15 00 00 00 	l.nop 0x0
    1210:	9c 60 00 64 	l.addi r3,r0,0x64
    1214:	d7 e2 1f f4 	l.sw 0xfffffff4(r2),r3
    1218:	84 82 ff f4 	l.lwz r4,0xfffffff4(r2)
    121c:	d7 e2 27 e4 	l.sw 0xffffffe4(r2),r4
    1220:	84 62 ff e4 	l.lwz r3,0xffffffe4(r2)
    1224:	9c 63 ff ff 	l.addi r3,r3,0xffffffff
    1228:	d7 e2 1f e0 	l.sw 0xffffffe0(r2),r3
    122c:	84 82 ff e0 	l.lwz r4,0xffffffe0(r2)
    1230:	d7 e2 27 dc 	l.sw 0xffffffdc(r2),r4
    1234:	84 62 ff dc 	l.lwz r3,0xffffffdc(r2)
    1238:	d7 e2 1f f4 	l.sw 0xfffffff4(r2),r3
    123c:	84 82 ff dc 	l.lwz r4,0xffffffdc(r2)
    1240:	bc 04 ff ff 	l.sfeqi r4,0xffffffff
    1244:	10 00 00 20 	l.bf 12c4 <_sendString+0x110>
    1248:	15 00 00 00 	l.nop 0x0
    124c:	18 60 90 00 	l.movhi r3,0x9000
    1250:	a8 63 00 05 	l.ori r3,r3,0x5
    1254:	d7 e2 1f d8 	l.sw 0xffffffd8(r2),r3
    1258:	84 82 ff d8 	l.lwz r4,0xffffffd8(r2)
    125c:	8c 84 00 00 	l.lbz r4,0x0(r4)
    1260:	db e2 27 d7 	l.sb 0xffffffd7(r2),r4
    1264:	8c 62 ff d7 	l.lbz r3,0xffffffd7(r2)
    1268:	db e2 1f f3 	l.sb 0xfffffff3(r2),r3
    126c:	8c 82 ff d7 	l.lbz r4,0xffffffd7(r2)
    1270:	d7 e2 27 d0 	l.sw 0xffffffd0(r2),r4
    1274:	84 62 ff d0 	l.lwz r3,0xffffffd0(r2)
    1278:	a4 63 00 60 	l.andi r3,r3,0x60
    127c:	d7 e2 1f cc 	l.sw 0xffffffcc(r2),r3
    1280:	84 82 ff cc 	l.lwz r4,0xffffffcc(r2)
    1284:	bc 04 00 00 	l.sfeqi r4,0x0
    1288:	10 00 00 04 	l.bf 1298 <_sendString+0xe4>
    128c:	15 00 00 00 	l.nop 0x0
    1290:	00 00 00 0d 	l.j 12c4 <_sendString+0x110>
    1294:	15 00 00 00 	l.nop 0x0
    1298:	18 60 00 00 	l.movhi r3,0x0
    129c:	a8 63 cb 1d 	l.ori r3,r3,0xcb1d
    12a0:	d4 01 18 00 	l.sw 0x0(r1),r3
    12a4:	90 82 ff f3 	l.lbs r4,0xfffffff3(r2)
    12a8:	d7 e2 27 c8 	l.sw 0xffffffc8(r2),r4
    12ac:	84 62 ff c8 	l.lwz r3,0xffffffc8(r2)
    12b0:	d4 01 18 04 	l.sw 0x4(r1),r3
    12b4:	04 00 00 73 	l.jal 1480 <_printf>
    12b8:	15 00 00 00 	l.nop 0x0
    12bc:	03 ff ff d7 	l.j 1218 <_sendString+0x64>
    12c0:	15 00 00 00 	l.nop 0x0
    12c4:	18 80 00 00 	l.movhi r4,0x0
    12c8:	a8 84 cb 29 	l.ori r4,r4,0xcb29
    12cc:	d4 01 20 00 	l.sw 0x0(r1),r4
    12d0:	84 62 ff f8 	l.lwz r3,0xfffffff8(r2)
    12d4:	d7 e2 1f c4 	l.sw 0xffffffc4(r2),r3
    12d8:	84 82 ff c4 	l.lwz r4,0xffffffc4(r2)
    12dc:	90 84 00 00 	l.lbs r4,0x0(r4)
    12e0:	d7 e2 27 c0 	l.sw 0xffffffc0(r2),r4
    12e4:	84 62 ff c0 	l.lwz r3,0xffffffc0(r2)
    12e8:	d4 01 18 04 	l.sw 0x4(r1),r3
    12ec:	84 82 ff f8 	l.lwz r4,0xfffffff8(r2)
    12f0:	d7 e2 27 bc 	l.sw 0xffffffbc(r2),r4
    12f4:	84 62 ff bc 	l.lwz r3,0xffffffbc(r2)
    12f8:	90 63 00 00 	l.lbs r3,0x0(r3)
    12fc:	d7 e2 1f b8 	l.sw 0xffffffb8(r2),r3
    1300:	84 82 ff b8 	l.lwz r4,0xffffffb8(r2)
    1304:	d4 01 20 08 	l.sw 0x8(r1),r4
    1308:	04 00 00 5e 	l.jal 1480 <_printf>
    130c:	15 00 00 00 	l.nop 0x0
    1310:	18 60 90 00 	l.movhi r3,0x9000
    1314:	a8 63 00 00 	l.ori r3,r3,0x0
    1318:	d7 e2 1f b4 	l.sw 0xffffffb4(r2),r3
    131c:	84 82 ff f8 	l.lwz r4,0xfffffff8(r2)
    1320:	d7 e2 27 b0 	l.sw 0xffffffb0(r2),r4
    1324:	84 62 ff b0 	l.lwz r3,0xffffffb0(r2)
    1328:	8c 83 00 00 	l.lbz r4,0x0(r3)
    132c:	84 62 ff b4 	l.lwz r3,0xffffffb4(r2)
    1330:	d8 03 20 00 	l.sb 0x0(r3),r4
    1334:	84 62 ff f8 	l.lwz r3,0xfffffff8(r2)
    1338:	d7 e2 1f ac 	l.sw 0xffffffac(r2),r3
    133c:	84 82 ff ac 	l.lwz r4,0xffffffac(r2)
    1340:	9c 84 00 01 	l.addi r4,r4,0x1
    1344:	d7 e2 27 a8 	l.sw 0xffffffa8(r2),r4
    1348:	84 62 ff a8 	l.lwz r3,0xffffffa8(r2)
    134c:	d7 e2 1f f8 	l.sw 0xfffffff8(r2),r3
    1350:	03 ff ff a7 	l.j 11ec <_sendString+0x38>
    1354:	15 00 00 00 	l.nop 0x0
    1358:	85 21 00 0c 	l.lwz r9,0xc(r1)
    135c:	84 41 00 10 	l.lwz r2,0x10(r1)
    1360:	44 00 48 00 	l.jr r9
    1364:	9c 21 00 6c 	l.addi r1,r1,0x6c

00001368 <_initialise>:
    1368:	9c 21 ff ec 	l.addi r1,r1,0xffffffec
    136c:	d4 01 10 08 	l.sw 0x8(r1),r2
    1370:	9c 41 00 14 	l.addi r2,r1,0x14
    1374:	d4 01 48 04 	l.sw 0x4(r1),r9
    1378:	18 60 00 00 	l.movhi r3,0x0
    137c:	a8 63 cb 40 	l.ori r3,r3,0xcb40
    1380:	d4 01 18 00 	l.sw 0x0(r1),r3
    1384:	04 00 00 3f 	l.jal 1480 <_printf>
    1388:	15 00 00 00 	l.nop 0x0
    138c:	18 80 00 00 	l.movhi r4,0x0
    1390:	a8 84 f8 34 	l.ori r4,r4,0xf834
    1394:	d7 e2 27 f8 	l.sw 0xfffffff8(r2),r4
    1398:	9c 80 00 00 	l.addi r4,r0,0x0
    139c:	84 62 ff f8 	l.lwz r3,0xfffffff8(r2)
    13a0:	d4 03 20 00 	l.sw 0x0(r3),r4
    13a4:	9c 60 00 01 	l.addi r3,r0,0x1
    13a8:	d7 e2 1f fc 	l.sw 0xfffffffc(r2),r3
    13ac:	85 62 ff fc 	l.lwz r11,0xfffffffc(r2)
    13b0:	85 21 00 04 	l.lwz r9,0x4(r1)
    13b4:	84 41 00 08 	l.lwz r2,0x8(r1)
    13b8:	44 00 48 00 	l.jr r9
    13bc:	9c 21 00 14 	l.addi r1,r1,0x14

000013c0 <_main>:
    13c0:	9c 21 ff e8 	l.addi r1,r1,0xffffffe8
    13c4:	d4 01 10 08 	l.sw 0x8(r1),r2
    13c8:	9c 41 00 18 	l.addi r2,r1,0x18
    13cc:	d4 01 48 04 	l.sw 0x4(r1),r9
    13d0:	d7 e2 1f fc 	l.sw 0xfffffffc(r2),r3
    13d4:	d7 e2 27 f8 	l.sw 0xfffffff8(r2),r4
    13d8:	18 60 00 00 	l.movhi r3,0x0
    13dc:	a8 63 cb 53 	l.ori r3,r3,0xcb53
    13e0:	d4 01 18 00 	l.sw 0x0(r1),r3
    13e4:	04 00 00 27 	l.jal 1480 <_printf>
    13e8:	15 00 00 00 	l.nop 0x0
    13ec:	07 ff ff df 	l.jal 1368 <_initialise>
    13f0:	15 00 00 00 	l.nop 0x0
    13f4:	07 ff ff 5d 	l.jal 1168 <_enableUart>
    13f8:	15 00 00 00 	l.nop 0x0
    13fc:	18 60 00 00 	l.movhi r3,0x0
    1400:	a8 63 cb 66 	l.ori r3,r3,0xcb66
    1404:	d4 01 18 00 	l.sw 0x0(r1),r3
    1408:	04 00 00 1e 	l.jal 1480 <_printf>
    140c:	15 00 00 00 	l.nop 0x0
    1410:	18 60 00 00 	l.movhi r3,0x0
    1414:	a8 63 cb 7e 	l.ori r3,r3,0xcb7e
    1418:	07 ff ff 67 	l.jal 11b4 <_sendString>
    141c:	15 00 00 00 	l.nop 0x0
    1420:	18 60 00 00 	l.movhi r3,0x0
    1424:	a8 63 cb 8b 	l.ori r3,r3,0xcb8b
    1428:	d4 01 18 00 	l.sw 0x0(r1),r3
    142c:	04 00 00 15 	l.jal 1480 <_printf>
    1430:	15 00 00 00 	l.nop 0x0
    1434:	9c 60 00 01 	l.addi r3,r0,0x1
    1438:	d7 e2 1f f4 	l.sw 0xfffffff4(r2),r3
    143c:	85 62 ff f4 	l.lwz r11,0xfffffff4(r2)
    1440:	85 21 00 04 	l.lwz r9,0x4(r1)
    1444:	84 41 00 08 	l.lwz r2,0x8(r1)
    1448:	44 00 48 00 	l.jr r9
    144c:	9c 21 00 18 	l.addi r1,r1,0x18

00001450 <__printf_r>:
    1450:	9c 21 ff f8 	l.addi r1,r1,0xfffffff8
    1454:	d4 01 10 04 	l.sw 0x4(r1),r2
    1458:	9c 41 00 08 	l.addi r2,r1,0x8
    145c:	d4 01 48 00 	l.sw 0x0(r1),r9
    1460:	84 83 00 08 	l.lwz r4,0x8(r3)
    1464:	9c c2 00 04 	l.addi r6,r2,0x4
    1468:	04 00 00 2b 	l.jal 1514 <__vfprintf_r>
    146c:	84 a2 00 00 	l.lwz r5,0x0(r2)
    1470:	85 21 00 00 	l.lwz r9,0x0(r1)
    1474:	84 41 00 04 	l.lwz r2,0x4(r1)
    1478:	44 00 48 00 	l.jr r9
    147c:	9c 21 00 08 	l.addi r1,r1,0x8

00001480 <_printf>:
    1480:	9c 21 ff f8 	l.addi r1,r1,0xfffffff8
    1484:	d4 01 10 04 	l.sw 0x4(r1),r2
    1488:	9c 41 00 08 	l.addi r2,r1,0x8
    148c:	d4 01 48 00 	l.sw 0x0(r1),r9
    1490:	18 60 00 00 	l.movhi r3,0x0
    1494:	a8 63 f3 cc 	l.ori r3,r3,0xf3cc
    1498:	84 82 00 00 	l.lwz r4,0x0(r2)
    149c:	9c a2 00 04 	l.addi r5,r2,0x4
    14a0:	84 63 00 00 	l.lwz r3,0x0(r3)
    14a4:	04 00 07 38 	l.jal 3184 <_vfprintf>
    14a8:	84 63 00 08 	l.lwz r3,0x8(r3)
    14ac:	85 21 00 00 	l.lwz r9,0x0(r1)
    14b0:	84 41 00 04 	l.lwz r2,0x4(r1)
    14b4:	44 00 48 00 	l.jr r9
    14b8:	9c 21 00 08 	l.addi r1,r1,0x8

000014bc <___sprint>:
    14bc:	9c 21 ff f4 	l.addi r1,r1,0xfffffff4
    14c0:	d4 01 10 04 	l.sw 0x4(r1),r2
    14c4:	9c 41 00 0c 	l.addi r2,r1,0xc
    14c8:	d4 01 48 00 	l.sw 0x0(r1),r9
    14cc:	d4 01 50 08 	l.sw 0x8(r1),r10
    14d0:	84 a4 00 08 	l.lwz r5,0x8(r4)
    14d4:	9d 60 00 00 	l.addi r11,r0,0x0
    14d8:	e4 25 58 00 	l.sfne r5,r11
    14dc:	10 00 00 04 	l.bf 14ec <___sprint+0x30>
    14e0:	a9 44 00 00 	l.ori r10,r4,0x0
    14e4:	00 00 00 07 	l.j 1500 <___sprint+0x44>
    14e8:	d4 04 58 04 	l.sw 0x4(r4),r11
    14ec:	04 00 07 37 	l.jal 31c8 <___sfvwrite>
    14f0:	15 00 00 00 	l.nop 0x0
    14f4:	9c 60 00 00 	l.addi r3,r0,0x0
    14f8:	d4 0a 18 04 	l.sw 0x4(r10),r3
    14fc:	d4 0a 18 08 	l.sw 0x8(r10),r3
    1500:	85 21 00 00 	l.lwz r9,0x0(r1)
    1504:	84 41 00 04 	l.lwz r2,0x4(r1)
    1508:	85 41 00 08 	l.lwz r10,0x8(r1)
    150c:	44 00 48 00 	l.jr r9
    1510:	9c 21 00 0c 	l.addi r1,r1,0xc

00001514 <__vfprintf_r>:
    1514:	9c 21 f9 30 	l.addi r1,r1,0xfffff930
    1518:	d4 01 10 10 	l.sw 0x10(r1),r2
    151c:	9c 41 06 d0 	l.addi r2,r1,0x6d0
    1520:	d4 01 48 0c 	l.sw 0xc(r1),r9
    1524:	d4 01 50 14 	l.sw 0x14(r1),r10
    1528:	d4 01 60 18 	l.sw 0x18(r1),r12
    152c:	d4 01 70 1c 	l.sw 0x1c(r1),r14
    1530:	d4 01 80 20 	l.sw 0x20(r1),r16
    1534:	d4 01 90 24 	l.sw 0x24(r1),r18
    1538:	d4 01 a0 28 	l.sw 0x28(r1),r20
    153c:	d4 01 b0 2c 	l.sw 0x2c(r1),r22
    1540:	d4 01 c0 30 	l.sw 0x30(r1),r24
    1544:	d4 01 d0 34 	l.sw 0x34(r1),r26
    1548:	d4 01 e0 38 	l.sw 0x38(r1),r28
    154c:	d4 01 f0 3c 	l.sw 0x3c(r1),r30
    1550:	d7 e2 19 9c 	l.sw 0xfffff99c(r2),r3
    1554:	ab 84 00 00 	l.ori r28,r4,0x0
    1558:	9c 60 00 00 	l.addi r3,r0,0x0
    155c:	a9 45 00 00 	l.ori r10,r5,0x0
    1560:	ab c6 00 00 	l.ori r30,r6,0x0
    1564:	04 00 08 9e 	l.jal 37dc <_localeconv>
    1568:	d7 e2 19 84 	l.sw 0xfffff984(r2),r3
    156c:	18 60 00 00 	l.movhi r3,0x0
    1570:	a8 63 f3 cc 	l.ori r3,r3,0xf3cc
    1574:	84 82 f9 84 	l.lwz r4,0xfffff984(r2)
    1578:	e0 a0 00 04 	l.or r5,r0,r0
    157c:	18 c0 00 00 	l.movhi r6,0x0
    1580:	a8 c6 00 00 	l.ori r6,r6,0x0
    1584:	d7 e2 29 88 	l.sw 0xfffff988(r2),r5
    1588:	d7 e2 31 8c 	l.sw 0xfffff98c(r2),r6
    158c:	85 6b 00 00 	l.lwz r11,0x0(r11)
    1590:	84 63 00 00 	l.lwz r3,0x0(r3)
    1594:	d7 e2 59 90 	l.sw 0xfffff990(r2),r11
    1598:	d7 e2 21 7c 	l.sw 0xfffff97c(r2),r4
    159c:	bc 03 00 00 	l.sfeqi r3,0x0
    15a0:	10 00 00 06 	l.bf 15b8 <__vfprintf_r+0xa4>
    15a4:	d7 e2 21 78 	l.sw 0xfffff978(r2),r4
    15a8:	84 83 00 38 	l.lwz r4,0x38(r3)
    15ac:	bc 24 00 00 	l.sfnei r4,0x0
    15b0:	0c 00 00 61 	l.bnf 1734 <__vfprintf_r+0x220>
    15b4:	15 00 00 00 	l.nop 0x0
    15b8:	94 9c 00 0c 	l.lhz r4,0xc(r28)
    15bc:	a4 64 ff ff 	l.andi r3,r4,0xffff
    15c0:	b8 63 00 43 	l.srli r3,r3,0x3
    15c4:	ac 63 00 01 	l.xori r3,r3,0x1
    15c8:	a4 63 00 01 	l.andi r3,r3,0x1
    15cc:	bc 23 00 00 	l.sfnei r3,0x0
    15d0:	10 00 00 52 	l.bf 1718 <__vfprintf_r+0x204>
    15d4:	15 00 00 00 	l.nop 0x0
    15d8:	84 7c 00 10 	l.lwz r3,0x10(r28)
    15dc:	bc 23 00 00 	l.sfnei r3,0x0
    15e0:	0c 00 00 4e 	l.bnf 1718 <__vfprintf_r+0x204>
    15e4:	15 00 00 00 	l.nop 0x0
    15e8:	a4 64 00 1a 	l.andi r3,r4,0x1a
    15ec:	bc 23 00 0a 	l.sfnei r3,0xa
    15f0:	10 00 00 08 	l.bf 1610 <__vfprintf_r+0xfc>
    15f4:	9c 60 00 00 	l.addi r3,r0,0x0
    15f8:	94 bc 00 0e 	l.lhz r5,0xe(r28)
    15fc:	b8 65 00 10 	l.slli r3,r5,0x10
    1600:	b8 63 00 90 	l.srai r3,r3,0x10
    1604:	bd 83 00 00 	l.sfltsi r3,0x0
    1608:	0c 00 00 59 	l.bnf 176c <__vfprintf_r+0x258>
    160c:	9c 60 00 00 	l.addi r3,r0,0x0
    1610:	9d 02 ff a8 	l.addi r8,r2,0xffffffa8
    1614:	a9 ca 00 00 	l.ori r14,r10,0x0
    1618:	d7 e2 47 e8 	l.sw 0xffffffe8(r2),r8
    161c:	d7 e2 1f f0 	l.sw 0xfffffff0(r2),r3
    1620:	d7 e2 1f ec 	l.sw 0xffffffec(r2),r3
    1624:	aa 08 00 00 	l.ori r16,r8,0x0
    1628:	d7 e2 19 98 	l.sw 0xfffff998(r2),r3
    162c:	aa 4e 00 00 	l.ori r18,r14,0x0
    1630:	8c 8e 00 00 	l.lbz r4,0x0(r14)
    1634:	9c a0 00 00 	l.addi r5,r0,0x0
    1638:	b8 64 00 18 	l.slli r3,r4,0x18
    163c:	b8 63 00 98 	l.srai r3,r3,0x18
    1640:	e4 03 28 00 	l.sfeq r3,r5
    1644:	10 00 00 03 	l.bf 1650 <__vfprintf_r+0x13c>
    1648:	bc 03 00 25 	l.sfeqi r3,0x25
    164c:	9c a0 00 01 	l.addi r5,r0,0x1
    1650:	10 00 00 03 	l.bf 165c <__vfprintf_r+0x148>
    1654:	9c 60 00 00 	l.addi r3,r0,0x0
    1658:	9c 60 00 01 	l.addi r3,r0,0x1
    165c:	e0 65 18 03 	l.and r3,r5,r3
    1660:	bc 03 00 00 	l.sfeqi r3,0x0
    1664:	0f ff ff f3 	l.bnf 1630 <__vfprintf_r+0x11c>
    1668:	9d ce 00 01 	l.addi r14,r14,0x1
    166c:	9d ce ff ff 	l.addi r14,r14,0xffffffff
    1670:	e1 8e 90 02 	l.sub r12,r14,r18
    1674:	bc 0c 00 00 	l.sfeqi r12,0x0
    1678:	10 00 00 10 	l.bf 16b8 <__vfprintf_r+0x1a4>
    167c:	84 62 ff f0 	l.lwz r3,0xfffffff0(r2)
    1680:	e0 83 60 00 	l.add r4,r3,r12
    1684:	d4 10 90 00 	l.sw 0x0(r16),r18
    1688:	84 62 ff ec 	l.lwz r3,0xffffffec(r2)
    168c:	d4 10 60 04 	l.sw 0x4(r16),r12
    1690:	9c 63 00 01 	l.addi r3,r3,0x1
    1694:	d7 e2 27 f0 	l.sw 0xfffffff0(r2),r4
    1698:	9e 10 00 08 	l.addi r16,r16,0x8
    169c:	bd a3 00 07 	l.sflesi r3,0x7
    16a0:	0c 00 00 29 	l.bnf 1744 <__vfprintf_r+0x230>
    16a4:	d7 e2 1f ec 	l.sw 0xffffffec(r2),r3
    16a8:	84 a2 f9 98 	l.lwz r5,0xfffff998(r2)
    16ac:	8c 8e 00 00 	l.lbz r4,0x0(r14)
    16b0:	e0 a5 60 00 	l.add r5,r5,r12
    16b4:	d7 e2 29 98 	l.sw 0xfffff998(r2),r5
    16b8:	b8 64 00 18 	l.slli r3,r4,0x18
    16bc:	b8 63 00 98 	l.srai r3,r3,0x18
    16c0:	bc 23 00 00 	l.sfnei r3,0x0
    16c4:	0c 00 06 77 	l.bnf 30a0 <__vfprintf_r+0x1b8c>
    16c8:	9f 40 00 00 	l.addi r26,r0,0x0
    16cc:	9d ce 00 01 	l.addi r14,r14,0x1
    16d0:	d7 e2 d1 94 	l.sw 0xfffff994(r2),r26
    16d4:	9f 00 ff ff 	l.addi r24,r0,0xffffffff
    16d8:	8c 8e 00 00 	l.lbz r4,0x0(r14)
    16dc:	d7 e2 d1 80 	l.sw 0xfffff980(r2),r26
    16e0:	db e2 d7 ff 	l.sb 0xffffffff(r2),r26
    16e4:	ba c4 00 18 	l.slli r22,r4,0x18
    16e8:	ba d6 00 98 	l.srai r22,r22,0x18
    16ec:	9d ce 00 01 	l.addi r14,r14,0x1
    16f0:	9c 76 ff e0 	l.addi r3,r22,0xffffffe0
    16f4:	bc 43 00 58 	l.sfgtui r3,0x58
    16f8:	10 00 01 c2 	l.bf 1e00 <__vfprintf_r+0x8ec>
    16fc:	b8 63 00 02 	l.slli r3,r3,0x2
    1700:	18 c0 00 00 	l.movhi r6,0x0
    1704:	a8 c6 cb c4 	l.ori r6,r6,0xcbc4
    1708:	e0 63 30 00 	l.add r3,r3,r6
    170c:	84 63 00 00 	l.lwz r3,0x0(r3)
    1710:	44 00 18 00 	l.jr r3
    1714:	15 00 00 00 	l.nop 0x0
    1718:	04 00 08 3d 	l.jal 380c <___swsetup>
    171c:	a8 7c 00 00 	l.ori r3,r28,0x0
    1720:	bc 0b 00 00 	l.sfeqi r11,0x0
    1724:	0c 00 06 89 	l.bnf 3148 <__vfprintf_r+0x1c34>
    1728:	9d 60 ff ff 	l.addi r11,r0,0xffffffff
    172c:	03 ff ff af 	l.j 15e8 <__vfprintf_r+0xd4>
    1730:	94 9c 00 0c 	l.lhz r4,0xc(r28)
    1734:	04 00 08 db 	l.jal 3aa0 <___sinit>
    1738:	15 00 00 00 	l.nop 0x0
    173c:	03 ff ff a0 	l.j 15bc <__vfprintf_r+0xa8>
    1740:	94 9c 00 0c 	l.lhz r4,0xc(r28)
    1744:	a8 7c 00 00 	l.ori r3,r28,0x0
    1748:	07 ff ff 5d 	l.jal 14bc <___sprint>
    174c:	9c 82 ff e8 	l.addi r4,r2,0xffffffe8
    1750:	bc 0b 00 00 	l.sfeqi r11,0x0
    1754:	0c 00 03 1a 	l.bnf 23bc <__vfprintf_r+0xea8>
    1758:	9e 02 ff a8 	l.addi r16,r2,0xffffffa8
    175c:	03 ff ff d4 	l.j 16ac <__vfprintf_r+0x198>
    1760:	84 a2 f9 98 	l.lwz r5,0xfffff998(r2)
    1764:	00 00 06 79 	l.j 3148 <__vfprintf_r+0x1c34>
    1768:	9d 60 ff ff 	l.addi r11,r0,0xffffffff
    176c:	9c c0 ff fd 	l.addi r6,r0,0xfffffffd
    1770:	df e2 2d fa 	l.sh 0xfffffdfa(r2),r5
    1774:	e0 64 30 03 	l.and r3,r4,r6
    1778:	9c a0 04 00 	l.addi r5,r0,0x400
    177c:	df e2 1d f8 	l.sh 0xfffffdf8(r2),r3
    1780:	9c 82 f9 ec 	l.addi r4,r2,0xfffff9ec
    1784:	9c c0 00 00 	l.addi r6,r0,0x0
    1788:	84 7c 00 24 	l.lwz r3,0x24(r28)
    178c:	9d 82 fd ec 	l.addi r12,r2,0xfffffdec
    1790:	85 1c 00 1c 	l.lwz r8,0x1c(r28)
    1794:	d7 e2 1e 10 	l.sw 0xfffffe10(r2),r3
    1798:	d7 e2 2d f4 	l.sw 0xfffffdf4(r2),r5
    179c:	d7 e2 2e 00 	l.sw 0xfffffe00(r2),r5
    17a0:	d7 e2 25 fc 	l.sw 0xfffffdfc(r2),r4
    17a4:	d7 e2 25 ec 	l.sw 0xfffffdec(r2),r4
    17a8:	d7 e2 36 04 	l.sw 0xfffffe04(r2),r6
    17ac:	84 62 f9 9c 	l.lwz r3,0xfffff99c(r2)
    17b0:	a8 aa 00 00 	l.ori r5,r10,0x0
    17b4:	a8 de 00 00 	l.ori r6,r30,0x0
    17b8:	d7 e2 46 08 	l.sw 0xfffffe08(r2),r8
    17bc:	07 ff ff 56 	l.jal 1514 <__vfprintf_r>
    17c0:	a8 8c 00 00 	l.ori r4,r12,0x0
    17c4:	bd 8b 00 00 	l.sfltsi r11,0x0
    17c8:	0c 00 06 0b 	l.bnf 2ff4 <__vfprintf_r+0x1ae0>
    17cc:	a9 4b 00 00 	l.ori r10,r11,0x0
    17d0:	94 62 fd f8 	l.lhz r3,0xfffffdf8(r2)
    17d4:	b8 63 00 46 	l.srli r3,r3,0x6
    17d8:	a4 63 00 01 	l.andi r3,r3,0x1
    17dc:	bc 03 00 00 	l.sfeqi r3,0x0
    17e0:	10 00 00 05 	l.bf 17f4 <__vfprintf_r+0x2e0>
    17e4:	15 00 00 00 	l.nop 0x0
    17e8:	94 7c 00 0c 	l.lhz r3,0xc(r28)
    17ec:	a8 63 00 40 	l.ori r3,r3,0x40
    17f0:	dc 1c 18 0c 	l.sh 0xc(r28),r3
    17f4:	00 00 06 55 	l.j 3148 <__vfprintf_r+0x1c34>
    17f8:	a9 6a 00 00 	l.ori r11,r10,0x0
    17fc:	ab 5a 00 10 	l.ori r26,r26,0x10
    1800:	b8 7a 00 44 	l.srli r3,r26,0x4
    1804:	a4 63 00 01 	l.andi r3,r3,0x1
    1808:	bc 03 00 00 	l.sfeqi r3,0x0
    180c:	0c 00 03 9c 	l.bnf 267c <__vfprintf_r+0x1168>
    1810:	b8 7a 00 46 	l.srli r3,r26,0x6
    1814:	a4 63 00 01 	l.andi r3,r3,0x1
    1818:	bc 03 00 00 	l.sfeqi r3,0x0
    181c:	10 00 03 98 	l.bf 267c <__vfprintf_r+0x1168>
    1820:	15 00 00 00 	l.nop 0x0
    1824:	95 5e 00 02 	l.lhz r10,0x2(r30)
    1828:	9f de 00 04 	l.addi r30,r30,0x4
    182c:	9c a0 00 01 	l.addi r5,r0,0x1
    1830:	9c 60 00 00 	l.addi r3,r0,0x0
    1834:	db e2 1f ff 	l.sb 0xffffffff(r2),r3
    1838:	bd 98 00 00 	l.sfltsi r24,0x0
    183c:	10 00 00 04 	l.bf 184c <__vfprintf_r+0x338>
    1840:	d7 e2 c1 80 	l.sw 0xfffff980(r2),r24
    1844:	9c 80 ff 7f 	l.addi r4,r0,0xffffff7f
    1848:	e3 5a 20 03 	l.and r26,r26,r4
    184c:	9c 80 00 00 	l.addi r4,r0,0x0
    1850:	e4 0a 20 00 	l.sfeq r10,r4
    1854:	10 00 00 03 	l.bf 1860 <__vfprintf_r+0x34c>
    1858:	9e 42 ff a8 	l.addi r18,r2,0xffffffa8
    185c:	9c 80 00 01 	l.addi r4,r0,0x1
    1860:	84 c2 f9 80 	l.lwz r6,0xfffff980(r2)
    1864:	9c 60 00 00 	l.addi r3,r0,0x0
    1868:	e4 06 18 00 	l.sfeq r6,r3
    186c:	10 00 00 04 	l.bf 187c <__vfprintf_r+0x368>
    1870:	e0 64 18 04 	l.or r3,r4,r3
    1874:	9c 60 00 01 	l.addi r3,r0,0x1
    1878:	e0 64 18 04 	l.or r3,r4,r3
    187c:	bc 03 00 00 	l.sfeqi r3,0x0
    1880:	10 00 02 c0 	l.bf 2380 <__vfprintf_r+0xe6c>
    1884:	bc 25 00 00 	l.sfnei r5,0x0
    1888:	bc 05 00 01 	l.sfeqi r5,0x1
    188c:	10 00 01 11 	l.bf 1cd0 <__vfprintf_r+0x7bc>
    1890:	bc aa 00 09 	l.sfleui r10,0x9
    1894:	bd 45 00 01 	l.sfgtsi r5,0x1
    1898:	10 00 03 a9 	l.bf 273c <__vfprintf_r+0x1228>
    189c:	bc 05 00 02 	l.sfeqi r5,0x2
    18a0:	bc 05 00 00 	l.sfeqi r5,0x0
    18a4:	10 00 01 1c 	l.bf 1d14 <__vfprintf_r+0x800>
    18a8:	a4 6a 00 07 	l.andi r3,r10,0x7
    18ac:	1a 40 00 00 	l.movhi r18,0x0
    18b0:	aa 52 cd 28 	l.ori r18,r18,0xcd28
    18b4:	04 00 09 2b 	l.jal 3d60 <_strlen>
    18b8:	a8 72 00 00 	l.ori r3,r18,0x0
    18bc:	aa 8b 00 00 	l.ori r20,r11,0x0
    18c0:	85 02 f9 80 	l.lwz r8,0xfffff980(r2)
    18c4:	e5 74 40 00 	l.sfges r20,r8
    18c8:	10 00 00 03 	l.bf 18d4 <__vfprintf_r+0x3c0>
    18cc:	ab 14 00 00 	l.ori r24,r20,0x0
    18d0:	ab 08 00 00 	l.ori r24,r8,0x0
    18d4:	8c 82 ff ff 	l.lbz r4,0xffffffff(r2)
    18d8:	b8 64 00 18 	l.slli r3,r4,0x18
    18dc:	b8 63 00 98 	l.srai r3,r3,0x18
    18e0:	bc 03 00 00 	l.sfeqi r3,0x0
    18e4:	10 00 02 2b 	l.bf 2190 <__vfprintf_r+0xc7c>
    18e8:	b8 7a 00 41 	l.srli r3,r26,0x1
    18ec:	9f 18 00 01 	l.addi r24,r24,0x1
    18f0:	a5 9a 00 84 	l.andi r12,r26,0x84
    18f4:	bc 2c 00 00 	l.sfnei r12,0x0
    18f8:	10 00 00 27 	l.bf 1994 <__vfprintf_r+0x480>
    18fc:	84 62 f9 94 	l.lwz r3,0xfffff994(r2)
    1900:	e1 43 c0 02 	l.sub r10,r3,r24
    1904:	bd aa 00 00 	l.sflesi r10,0x0
    1908:	10 00 00 23 	l.bf 1994 <__vfprintf_r+0x480>
    190c:	bd aa 00 10 	l.sflesi r10,0x10
    1910:	10 00 00 14 	l.bf 1960 <__vfprintf_r+0x44c>
    1914:	84 62 ff f0 	l.lwz r3,0xfffffff0(r2)
    1918:	18 80 00 00 	l.movhi r4,0x0
    191c:	a8 84 cb 9c 	l.ori r4,r4,0xcb9c
    1920:	84 62 ff f0 	l.lwz r3,0xfffffff0(r2)
    1924:	9c a0 00 10 	l.addi r5,r0,0x10
    1928:	d4 10 20 00 	l.sw 0x0(r16),r4
    192c:	d4 10 28 04 	l.sw 0x4(r16),r5
    1930:	e0 83 28 00 	l.add r4,r3,r5
    1934:	9e 10 00 08 	l.addi r16,r16,0x8
    1938:	84 62 ff ec 	l.lwz r3,0xffffffec(r2)
    193c:	9c 63 00 01 	l.addi r3,r3,0x1
    1940:	d7 e2 27 f0 	l.sw 0xfffffff0(r2),r4
    1944:	bd a3 00 07 	l.sflesi r3,0x7
    1948:	0c 00 00 ea 	l.bnf 1cf0 <__vfprintf_r+0x7dc>
    194c:	d7 e2 1f ec 	l.sw 0xffffffec(r2),r3
    1950:	9d 4a ff f0 	l.addi r10,r10,0xfffffff0
    1954:	bd aa 00 10 	l.sflesi r10,0x10
    1958:	0f ff ff f0 	l.bnf 1918 <__vfprintf_r+0x404>
    195c:	84 62 ff f0 	l.lwz r3,0xfffffff0(r2)
    1960:	18 c0 00 00 	l.movhi r6,0x0
    1964:	a8 c6 cb 9c 	l.ori r6,r6,0xcb9c
    1968:	e0 83 50 00 	l.add r4,r3,r10
    196c:	d4 10 30 00 	l.sw 0x0(r16),r6
    1970:	84 62 ff ec 	l.lwz r3,0xffffffec(r2)
    1974:	d4 10 50 04 	l.sw 0x4(r16),r10
    1978:	9c 63 00 01 	l.addi r3,r3,0x1
    197c:	d7 e2 27 f0 	l.sw 0xfffffff0(r2),r4
    1980:	9e 10 00 08 	l.addi r16,r16,0x8
    1984:	bd a3 00 07 	l.sflesi r3,0x7
    1988:	0c 00 03 7a 	l.bnf 2770 <__vfprintf_r+0x125c>
    198c:	d7 e2 1f ec 	l.sw 0xffffffec(r2),r3
    1990:	8c 82 ff ff 	l.lbz r4,0xffffffff(r2)
    1994:	b8 64 00 18 	l.slli r3,r4,0x18
    1998:	b8 63 00 98 	l.srai r3,r3,0x18
    199c:	bc 03 00 00 	l.sfeqi r3,0x0
    19a0:	10 00 02 02 	l.bf 21a8 <__vfprintf_r+0xc94>
    19a4:	b8 7a 00 41 	l.srli r3,r26,0x1
    19a8:	84 62 ff f0 	l.lwz r3,0xfffffff0(r2)
    19ac:	9d 00 00 01 	l.addi r8,r0,0x1
    19b0:	e0 83 40 00 	l.add r4,r3,r8
    19b4:	d4 10 40 04 	l.sw 0x4(r16),r8
    19b8:	9c 62 ff ff 	l.addi r3,r2,0xffffffff
    19bc:	d7 e2 27 f0 	l.sw 0xfffffff0(r2),r4
    19c0:	d4 10 18 00 	l.sw 0x0(r16),r3
    19c4:	84 62 ff ec 	l.lwz r3,0xffffffec(r2)
    19c8:	9e 10 00 08 	l.addi r16,r16,0x8
    19cc:	e0 63 40 00 	l.add r3,r3,r8
    19d0:	bd a3 00 07 	l.sflesi r3,0x7
    19d4:	0c 00 02 09 	l.bnf 21f8 <__vfprintf_r+0xce4>
    19d8:	d7 e2 1f ec 	l.sw 0xffffffec(r2),r3
    19dc:	bc 2c 00 80 	l.sfnei r12,0x80
    19e0:	10 00 00 2e 	l.bf 1a98 <__vfprintf_r+0x584>
    19e4:	84 c2 f9 80 	l.lwz r6,0xfffff980(r2)
    19e8:	85 02 f9 94 	l.lwz r8,0xfffff994(r2)
    19ec:	e1 48 c0 02 	l.sub r10,r8,r24
    19f0:	bd aa 00 00 	l.sflesi r10,0x0
    19f4:	10 00 00 29 	l.bf 1a98 <__vfprintf_r+0x584>
    19f8:	bd aa 00 10 	l.sflesi r10,0x10
    19fc:	10 00 00 14 	l.bf 1a4c <__vfprintf_r+0x538>
    1a00:	84 62 ff f0 	l.lwz r3,0xfffffff0(r2)
    1a04:	18 60 00 00 	l.movhi r3,0x0
    1a08:	a8 63 cb ac 	l.ori r3,r3,0xcbac
    1a0c:	9c 80 00 10 	l.addi r4,r0,0x10
    1a10:	d4 10 18 00 	l.sw 0x0(r16),r3
    1a14:	d4 10 20 04 	l.sw 0x4(r16),r4
    1a18:	84 62 ff f0 	l.lwz r3,0xfffffff0(r2)
    1a1c:	9e 10 00 08 	l.addi r16,r16,0x8
    1a20:	e0 83 20 00 	l.add r4,r3,r4
    1a24:	84 62 ff ec 	l.lwz r3,0xffffffec(r2)
    1a28:	9c 63 00 01 	l.addi r3,r3,0x1
    1a2c:	d7 e2 27 f0 	l.sw 0xfffffff0(r2),r4
    1a30:	bd a3 00 07 	l.sflesi r3,0x7
    1a34:	0c 00 01 bf 	l.bnf 2130 <__vfprintf_r+0xc1c>
    1a38:	d7 e2 1f ec 	l.sw 0xffffffec(r2),r3
    1a3c:	9d 4a ff f0 	l.addi r10,r10,0xfffffff0
    1a40:	bd aa 00 10 	l.sflesi r10,0x10
    1a44:	0f ff ff f0 	l.bnf 1a04 <__vfprintf_r+0x4f0>
    1a48:	84 62 ff f0 	l.lwz r3,0xfffffff0(r2)
    1a4c:	18 a0 00 00 	l.movhi r5,0x0
    1a50:	a8 a5 cb ac 	l.ori r5,r5,0xcbac
    1a54:	e0 83 50 00 	l.add r4,r3,r10
    1a58:	d4 10 28 00 	l.sw 0x0(r16),r5
    1a5c:	84 62 ff ec 	l.lwz r3,0xffffffec(r2)
    1a60:	d4 10 50 04 	l.sw 0x4(r16),r10
    1a64:	9c 63 00 01 	l.addi r3,r3,0x1
    1a68:	d7 e2 27 f0 	l.sw 0xfffffff0(r2),r4
    1a6c:	9e 10 00 08 	l.addi r16,r16,0x8
    1a70:	bd a3 00 07 	l.sflesi r3,0x7
    1a74:	10 00 00 08 	l.bf 1a94 <__vfprintf_r+0x580>
    1a78:	d7 e2 1f ec 	l.sw 0xffffffec(r2),r3
    1a7c:	a8 7c 00 00 	l.ori r3,r28,0x0
    1a80:	07 ff fe 8f 	l.jal 14bc <___sprint>
    1a84:	9c 82 ff e8 	l.addi r4,r2,0xffffffe8
    1a88:	bc 0b 00 00 	l.sfeqi r11,0x0
    1a8c:	0c 00 02 4c 	l.bnf 23bc <__vfprintf_r+0xea8>
    1a90:	9e 02 ff a8 	l.addi r16,r2,0xffffffa8
    1a94:	84 c2 f9 80 	l.lwz r6,0xfffff980(r2)
    1a98:	e1 46 a0 02 	l.sub r10,r6,r20
    1a9c:	bd aa 00 00 	l.sflesi r10,0x0
    1aa0:	10 00 00 2a 	l.bf 1b48 <__vfprintf_r+0x634>
    1aa4:	b8 7a 00 48 	l.srli r3,r26,0x8
    1aa8:	bd aa 00 10 	l.sflesi r10,0x10
    1aac:	10 00 00 13 	l.bf 1af8 <__vfprintf_r+0x5e4>
    1ab0:	9c 60 00 10 	l.addi r3,r0,0x10
    1ab4:	19 00 00 00 	l.movhi r8,0x0
    1ab8:	a9 08 cb ac 	l.ori r8,r8,0xcbac
    1abc:	d4 10 18 04 	l.sw 0x4(r16),r3
    1ac0:	d4 10 40 00 	l.sw 0x0(r16),r8
    1ac4:	84 62 ff f0 	l.lwz r3,0xfffffff0(r2)
    1ac8:	9e 10 00 08 	l.addi r16,r16,0x8
    1acc:	9c 83 00 10 	l.addi r4,r3,0x10
    1ad0:	84 62 ff ec 	l.lwz r3,0xffffffec(r2)
    1ad4:	9c 63 00 01 	l.addi r3,r3,0x1
    1ad8:	d7 e2 27 f0 	l.sw 0xfffffff0(r2),r4
    1adc:	bd a3 00 07 	l.sflesi r3,0x7
    1ae0:	0c 00 01 9c 	l.bnf 2150 <__vfprintf_r+0xc3c>
    1ae4:	d7 e2 1f ec 	l.sw 0xffffffec(r2),r3
    1ae8:	9d 4a ff f0 	l.addi r10,r10,0xfffffff0
    1aec:	bd aa 00 10 	l.sflesi r10,0x10
    1af0:	0f ff ff f1 	l.bnf 1ab4 <__vfprintf_r+0x5a0>
    1af4:	9c 60 00 10 	l.addi r3,r0,0x10
    1af8:	18 80 00 00 	l.movhi r4,0x0
    1afc:	a8 84 cb ac 	l.ori r4,r4,0xcbac
    1b00:	84 62 ff f0 	l.lwz r3,0xfffffff0(r2)
    1b04:	d4 10 20 00 	l.sw 0x0(r16),r4
    1b08:	d4 10 50 04 	l.sw 0x4(r16),r10
    1b0c:	e0 83 50 00 	l.add r4,r3,r10
    1b10:	9e 10 00 08 	l.addi r16,r16,0x8
    1b14:	84 62 ff ec 	l.lwz r3,0xffffffec(r2)
    1b18:	9c 63 00 01 	l.addi r3,r3,0x1
    1b1c:	d7 e2 27 f0 	l.sw 0xfffffff0(r2),r4
    1b20:	bd a3 00 07 	l.sflesi r3,0x7
    1b24:	10 00 00 08 	l.bf 1b44 <__vfprintf_r+0x630>
    1b28:	d7 e2 1f ec 	l.sw 0xffffffec(r2),r3
    1b2c:	a8 7c 00 00 	l.ori r3,r28,0x0
    1b30:	07 ff fe 63 	l.jal 14bc <___sprint>
    1b34:	9c 82 ff e8 	l.addi r4,r2,0xffffffe8
    1b38:	bc 0b 00 00 	l.sfeqi r11,0x0
    1b3c:	0c 00 02 20 	l.bnf 23bc <__vfprintf_r+0xea8>
    1b40:	9e 02 ff a8 	l.addi r16,r2,0xffffffa8
    1b44:	b8 7a 00 48 	l.srli r3,r26,0x8
    1b48:	ac 63 00 01 	l.xori r3,r3,0x1
    1b4c:	a4 63 00 01 	l.andi r3,r3,0x1
    1b50:	bc 03 00 00 	l.sfeqi r3,0x0
    1b54:	10 00 01 b1 	l.bf 2218 <__vfprintf_r+0xd04>
    1b58:	bd b6 00 65 	l.sflesi r22,0x65
    1b5c:	84 62 ff f0 	l.lwz r3,0xfffffff0(r2)
    1b60:	e0 83 a0 00 	l.add r4,r3,r20
    1b64:	d4 10 90 00 	l.sw 0x0(r16),r18
    1b68:	84 62 ff ec 	l.lwz r3,0xffffffec(r2)
    1b6c:	d4 10 a0 04 	l.sw 0x4(r16),r20
    1b70:	9c 63 00 01 	l.addi r3,r3,0x1
    1b74:	d7 e2 27 f0 	l.sw 0xfffffff0(r2),r4
    1b78:	9e 10 00 08 	l.addi r16,r16,0x8
    1b7c:	d7 e2 1f ec 	l.sw 0xffffffec(r2),r3
    1b80:	bd a3 00 07 	l.sflesi r3,0x7
    1b84:	0c 00 02 1a 	l.bnf 23ec <__vfprintf_r+0xed8>
    1b88:	a8 7c 00 00 	l.ori r3,r28,0x0
    1b8c:	b8 7a 00 42 	l.srli r3,r26,0x2
    1b90:	a4 63 00 01 	l.andi r3,r3,0x1
    1b94:	bc 03 00 00 	l.sfeqi r3,0x0
    1b98:	10 00 00 2e 	l.bf 1c50 <__vfprintf_r+0x73c>
    1b9c:	84 c2 f9 94 	l.lwz r6,0xfffff994(r2)
    1ba0:	85 02 f9 94 	l.lwz r8,0xfffff994(r2)
    1ba4:	e1 48 c0 02 	l.sub r10,r8,r24
    1ba8:	bd aa 00 00 	l.sflesi r10,0x0
    1bac:	10 00 00 2a 	l.bf 1c54 <__vfprintf_r+0x740>
    1bb0:	e5 78 30 00 	l.sfges r24,r6
    1bb4:	bd aa 00 10 	l.sflesi r10,0x10
    1bb8:	10 00 00 14 	l.bf 1c08 <__vfprintf_r+0x6f4>
    1bbc:	84 62 ff f0 	l.lwz r3,0xfffffff0(r2)
    1bc0:	18 60 00 00 	l.movhi r3,0x0
    1bc4:	a8 63 cb 9c 	l.ori r3,r3,0xcb9c
    1bc8:	9c 80 00 10 	l.addi r4,r0,0x10
    1bcc:	d4 10 18 00 	l.sw 0x0(r16),r3
    1bd0:	d4 10 20 04 	l.sw 0x4(r16),r4
    1bd4:	84 62 ff f0 	l.lwz r3,0xfffffff0(r2)
    1bd8:	9e 10 00 08 	l.addi r16,r16,0x8
    1bdc:	e0 83 20 00 	l.add r4,r3,r4
    1be0:	84 62 ff ec 	l.lwz r3,0xffffffec(r2)
    1be4:	9c 63 00 01 	l.addi r3,r3,0x1
    1be8:	d7 e2 27 f0 	l.sw 0xfffffff0(r2),r4
    1bec:	bd a3 00 07 	l.sflesi r3,0x7
    1bf0:	0c 00 01 60 	l.bnf 2170 <__vfprintf_r+0xc5c>
    1bf4:	d7 e2 1f ec 	l.sw 0xffffffec(r2),r3
    1bf8:	9d 4a ff f0 	l.addi r10,r10,0xfffffff0
    1bfc:	bd aa 00 10 	l.sflesi r10,0x10
    1c00:	0f ff ff f0 	l.bnf 1bc0 <__vfprintf_r+0x6ac>
    1c04:	84 62 ff f0 	l.lwz r3,0xfffffff0(r2)
    1c08:	18 a0 00 00 	l.movhi r5,0x0
    1c0c:	a8 a5 cb 9c 	l.ori r5,r5,0xcb9c
    1c10:	e0 83 50 00 	l.add r4,r3,r10
    1c14:	d4 10 28 00 	l.sw 0x0(r16),r5
    1c18:	84 62 ff ec 	l.lwz r3,0xffffffec(r2)
    1c1c:	9c 63 00 01 	l.addi r3,r3,0x1
    1c20:	d4 10 50 04 	l.sw 0x4(r16),r10
    1c24:	d7 e2 27 f0 	l.sw 0xfffffff0(r2),r4
    1c28:	bd a3 00 07 	l.sflesi r3,0x7
    1c2c:	10 00 00 08 	l.bf 1c4c <__vfprintf_r+0x738>
    1c30:	d7 e2 1f ec 	l.sw 0xffffffec(r2),r3
    1c34:	a8 7c 00 00 	l.ori r3,r28,0x0
    1c38:	07 ff fe 21 	l.jal 14bc <___sprint>
    1c3c:	9c 82 ff e8 	l.addi r4,r2,0xffffffe8
    1c40:	bc 0b 00 00 	l.sfeqi r11,0x0
    1c44:	0c 00 01 df 	l.bnf 23c0 <__vfprintf_r+0xeac>
    1c48:	85 02 f9 78 	l.lwz r8,0xfffff978(r2)
    1c4c:	84 c2 f9 94 	l.lwz r6,0xfffff994(r2)
    1c50:	e5 78 30 00 	l.sfges r24,r6
    1c54:	10 00 00 03 	l.bf 1c60 <__vfprintf_r+0x74c>
    1c58:	a8 78 00 00 	l.ori r3,r24,0x0
    1c5c:	a8 66 00 00 	l.ori r3,r6,0x0
    1c60:	85 02 f9 98 	l.lwz r8,0xfffff998(r2)
    1c64:	e1 08 18 00 	l.add r8,r8,r3
    1c68:	84 62 ff f0 	l.lwz r3,0xfffffff0(r2)
    1c6c:	bc 03 00 00 	l.sfeqi r3,0x0
    1c70:	0c 00 01 cd 	l.bnf 23a4 <__vfprintf_r+0xe90>
    1c74:	d7 e2 41 98 	l.sw 0xfffff998(r2),r8
    1c78:	84 82 f9 78 	l.lwz r4,0xfffff978(r2)
    1c7c:	9c 60 00 00 	l.addi r3,r0,0x0
    1c80:	9e 02 ff a8 	l.addi r16,r2,0xffffffa8
    1c84:	e4 04 18 00 	l.sfeq r4,r3
    1c88:	13 ff fe 69 	l.bf 162c <__vfprintf_r+0x118>
    1c8c:	d7 e2 1f ec 	l.sw 0xffffffec(r2),r3
    1c90:	9c a0 00 00 	l.addi r5,r0,0x0
    1c94:	84 62 f9 9c 	l.lwz r3,0xfffff99c(r2)
    1c98:	04 00 08 a6 	l.jal 3f30 <__free_r>
    1c9c:	d7 e2 29 78 	l.sw 0xfffff978(r2),r5
    1ca0:	03 ff fe 64 	l.j 1630 <__vfprintf_r+0x11c>
    1ca4:	aa 4e 00 00 	l.ori r18,r14,0x0
    1ca8:	9c 80 00 0a 	l.addi r4,r0,0xa
    1cac:	04 00 26 25 	l.jal b540 <___umodsi3>
    1cb0:	9e 52 ff ff 	l.addi r18,r18,0xffffffff
    1cb4:	9d 6b 00 30 	l.addi r11,r11,0x30
    1cb8:	a8 6a 00 00 	l.ori r3,r10,0x0
    1cbc:	d8 12 58 00 	l.sb 0x0(r18),r11
    1cc0:	04 00 26 28 	l.jal b560 <___udivsi3>
    1cc4:	9c 80 00 0a 	l.addi r4,r0,0xa
    1cc8:	a9 4b 00 00 	l.ori r10,r11,0x0
    1ccc:	bc aa 00 09 	l.sfleui r10,0x9
    1cd0:	0f ff ff f6 	l.bnf 1ca8 <__vfprintf_r+0x794>
    1cd4:	a8 6a 00 00 	l.ori r3,r10,0x0
    1cd8:	9e 52 ff ff 	l.addi r18,r18,0xffffffff
    1cdc:	9c 6a 00 30 	l.addi r3,r10,0x30
    1ce0:	d8 12 18 00 	l.sb 0x0(r18),r3
    1ce4:	e0 82 90 02 	l.sub r4,r2,r18
    1ce8:	03 ff fe f6 	l.j 18c0 <__vfprintf_r+0x3ac>
    1cec:	9e 84 ff a8 	l.addi r20,r4,0xffffffa8
    1cf0:	a8 7c 00 00 	l.ori r3,r28,0x0
    1cf4:	07 ff fd f2 	l.jal 14bc <___sprint>
    1cf8:	9c 82 ff e8 	l.addi r4,r2,0xffffffe8
    1cfc:	bc 0b 00 00 	l.sfeqi r11,0x0
    1d00:	0c 00 01 af 	l.bnf 23bc <__vfprintf_r+0xea8>
    1d04:	9e 02 ff a8 	l.addi r16,r2,0xffffffa8
    1d08:	03 ff ff 13 	l.j 1954 <__vfprintf_r+0x440>
    1d0c:	9d 4a ff f0 	l.addi r10,r10,0xfffffff0
    1d10:	a4 6a 00 07 	l.andi r3,r10,0x7
    1d14:	9e 52 ff ff 	l.addi r18,r18,0xffffffff
    1d18:	b9 4a 00 43 	l.srli r10,r10,0x3
    1d1c:	9c 63 00 30 	l.addi r3,r3,0x30
    1d20:	bc 0a 00 00 	l.sfeqi r10,0x0
    1d24:	0f ff ff fb 	l.bnf 1d10 <__vfprintf_r+0x7fc>
    1d28:	d8 12 18 00 	l.sb 0x0(r18),r3
    1d2c:	a4 9a 00 01 	l.andi r4,r26,0x1
    1d30:	bc 04 00 00 	l.sfeqi r4,0x0
    1d34:	13 ff ff ed 	l.bf 1ce8 <__vfprintf_r+0x7d4>
    1d38:	e0 82 90 02 	l.sub r4,r2,r18
    1d3c:	bc 03 00 30 	l.sfeqi r3,0x30
    1d40:	13 ff ff ea 	l.bf 1ce8 <__vfprintf_r+0x7d4>
    1d44:	9d 00 00 30 	l.addi r8,r0,0x30
    1d48:	9e 52 ff ff 	l.addi r18,r18,0xffffffff
    1d4c:	03 ff ff e6 	l.j 1ce4 <__vfprintf_r+0x7d0>
    1d50:	d8 12 40 00 	l.sb 0x0(r18),r8
    1d54:	ab 5a 00 10 	l.ori r26,r26,0x10
    1d58:	b8 7a 00 44 	l.srli r3,r26,0x4
    1d5c:	a4 63 00 01 	l.andi r3,r3,0x1
    1d60:	bc 03 00 00 	l.sfeqi r3,0x0
    1d64:	0c 00 02 48 	l.bnf 2684 <__vfprintf_r+0x1170>
    1d68:	b8 7a 00 46 	l.srli r3,r26,0x6
    1d6c:	a4 63 00 01 	l.andi r3,r3,0x1
    1d70:	bc 03 00 00 	l.sfeqi r3,0x0
    1d74:	10 00 02 44 	l.bf 2684 <__vfprintf_r+0x1170>
    1d78:	15 00 00 00 	l.nop 0x0
    1d7c:	99 5e 00 02 	l.lhs r10,0x2(r30)
    1d80:	bd 6a 00 00 	l.sfgesi r10,0x0
    1d84:	10 00 00 05 	l.bf 1d98 <__vfprintf_r+0x884>
    1d88:	9f de 00 04 	l.addi r30,r30,0x4
    1d8c:	9c a0 00 2d 	l.addi r5,r0,0x2d
    1d90:	e1 40 50 02 	l.sub r10,r0,r10
    1d94:	db e2 2f ff 	l.sb 0xffffffff(r2),r5
    1d98:	03 ff fe a8 	l.j 1838 <__vfprintf_r+0x324>
    1d9c:	9c a0 00 01 	l.addi r5,r0,0x1
    1da0:	ab 5a 00 10 	l.ori r26,r26,0x10
    1da4:	b8 7a 00 44 	l.srli r3,r26,0x4
    1da8:	a4 63 00 01 	l.andi r3,r3,0x1
    1dac:	bc 03 00 00 	l.sfeqi r3,0x0
    1db0:	0c 00 02 37 	l.bnf 268c <__vfprintf_r+0x1178>
    1db4:	b8 7a 00 46 	l.srli r3,r26,0x6
    1db8:	a4 63 00 01 	l.andi r3,r3,0x1
    1dbc:	bc 03 00 00 	l.sfeqi r3,0x0
    1dc0:	10 00 02 33 	l.bf 268c <__vfprintf_r+0x1178>
    1dc4:	15 00 00 00 	l.nop 0x0
    1dc8:	95 5e 00 02 	l.lhz r10,0x2(r30)
    1dcc:	9f de 00 04 	l.addi r30,r30,0x4
    1dd0:	03 ff fe 98 	l.j 1830 <__vfprintf_r+0x31c>
    1dd4:	9c a0 00 00 	l.addi r5,r0,0x0
    1dd8:	84 7e 00 00 	l.lwz r3,0x0(r30)
    1ddc:	9f de 00 04 	l.addi r30,r30,0x4
    1de0:	bd 83 00 00 	l.sfltsi r3,0x0
    1de4:	0c 00 00 14 	l.bnf 1e34 <__vfprintf_r+0x920>
    1de8:	d7 e2 19 94 	l.sw 0xfffff994(r2),r3
    1dec:	e0 60 18 02 	l.sub r3,r0,r3
    1df0:	d7 e2 19 94 	l.sw 0xfffff994(r2),r3
    1df4:	8c 8e 00 00 	l.lbz r4,0x0(r14)
    1df8:	03 ff fe 3b 	l.j 16e4 <__vfprintf_r+0x1d0>
    1dfc:	ab 5a 00 04 	l.ori r26,r26,0x4
    1e00:	bc 36 00 00 	l.sfnei r22,0x0
    1e04:	0c 00 04 a7 	l.bnf 30a0 <__vfprintf_r+0x1b8c>
    1e08:	9e 42 fe 4c 	l.addi r18,r2,0xfffffe4c
    1e0c:	9c c0 00 00 	l.addi r6,r0,0x0
    1e10:	d8 12 b0 00 	l.sb 0x0(r18),r22
    1e14:	9e 80 00 01 	l.addi r20,r0,0x1
    1e18:	03 ff fe aa 	l.j 18c0 <__vfprintf_r+0x3ac>
    1e1c:	db e2 37 ff 	l.sb 0xffffffff(r2),r6
    1e20:	90 62 ff ff 	l.lbs r3,0xffffffff(r2)
    1e24:	bc 23 00 00 	l.sfnei r3,0x0
    1e28:	10 00 00 03 	l.bf 1e34 <__vfprintf_r+0x920>
    1e2c:	9d 00 00 20 	l.addi r8,r0,0x20
    1e30:	db e2 47 ff 	l.sb 0xffffffff(r2),r8
    1e34:	03 ff fe 2c 	l.j 16e4 <__vfprintf_r+0x1d0>
    1e38:	8c 8e 00 00 	l.lbz r4,0x0(r14)
    1e3c:	85 5e 00 00 	l.lwz r10,0x0(r30)
    1e40:	18 c0 00 00 	l.movhi r6,0x0
    1e44:	a8 c6 cd 42 	l.ori r6,r6,0xcd42
    1e48:	ab 5a 00 02 	l.ori r26,r26,0x2
    1e4c:	9f de 00 04 	l.addi r30,r30,0x4
    1e50:	9c a0 00 02 	l.addi r5,r0,0x2
    1e54:	d7 e2 31 7c 	l.sw 0xfffff97c(r2),r6
    1e58:	03 ff fe 76 	l.j 1830 <__vfprintf_r+0x31c>
    1e5c:	9e c0 00 78 	l.addi r22,r0,0x78
    1e60:	9d 00 00 00 	l.addi r8,r0,0x0
    1e64:	a8 7e 00 00 	l.ori r3,r30,0x0
    1e68:	db e2 47 ff 	l.sb 0xffffffff(r2),r8
    1e6c:	86 43 00 00 	l.lwz r18,0x0(r3)
    1e70:	bc 32 00 00 	l.sfnei r18,0x0
    1e74:	10 00 02 c7 	l.bf 2990 <__vfprintf_r+0x147c>
    1e78:	9f de 00 04 	l.addi r30,r30,0x4
    1e7c:	1a 40 00 00 	l.movhi r18,0x0
    1e80:	aa 52 cd 53 	l.ori r18,r18,0xcd53
    1e84:	03 ff fe 8f 	l.j 18c0 <__vfprintf_r+0x3ac>
    1e88:	9e 80 00 06 	l.addi r20,r0,0x6
    1e8c:	8c 8e 00 00 	l.lbz r4,0x0(r14)
    1e90:	03 ff fe 15 	l.j 16e4 <__vfprintf_r+0x1d0>
    1e94:	ab 5a 00 10 	l.ori r26,r26,0x10
    1e98:	8c 8e 00 00 	l.lbz r4,0x0(r14)
    1e9c:	03 ff fe 12 	l.j 16e4 <__vfprintf_r+0x1d0>
    1ea0:	ab 5a 00 40 	l.ori r26,r26,0x40
    1ea4:	b8 7a 00 44 	l.srli r3,r26,0x4
    1ea8:	a4 63 00 01 	l.andi r3,r3,0x1
    1eac:	bc 03 00 00 	l.sfeqi r3,0x0
    1eb0:	10 00 03 07 	l.bf 2acc <__vfprintf_r+0x15b8>
    1eb4:	b8 7a 00 46 	l.srli r3,r26,0x6
    1eb8:	84 7e 00 00 	l.lwz r3,0x0(r30)
    1ebc:	85 02 f9 98 	l.lwz r8,0xfffff998(r2)
    1ec0:	9f de 00 04 	l.addi r30,r30,0x4
    1ec4:	03 ff fd da 	l.j 162c <__vfprintf_r+0x118>
    1ec8:	d4 03 40 00 	l.sw 0x0(r3),r8
    1ecc:	8c 8e 00 00 	l.lbz r4,0x0(r14)
    1ed0:	b8 64 00 18 	l.slli r3,r4,0x18
    1ed4:	b8 63 00 98 	l.srai r3,r3,0x18
    1ed8:	bc 23 00 6c 	l.sfnei r3,0x6c
    1edc:	13 ff ff ed 	l.bf 1e90 <__vfprintf_r+0x97c>
    1ee0:	15 00 00 00 	l.nop 0x0
    1ee4:	9d ce 00 01 	l.addi r14,r14,0x1
    1ee8:	ab 5a 00 10 	l.ori r26,r26,0x10
    1eec:	03 ff fd fe 	l.j 16e4 <__vfprintf_r+0x1d0>
    1ef0:	8c 8e 00 00 	l.lbz r4,0x0(r14)
    1ef4:	bc 38 ff ff 	l.sfnei r24,0xffffffff
    1ef8:	10 00 02 e5 	l.bf 2a8c <__vfprintf_r+0x1578>
    1efc:	bc 36 00 67 	l.sfnei r22,0x67
    1f00:	9f 00 00 06 	l.addi r24,r0,0x6
    1f04:	b8 7a 00 43 	l.srli r3,r26,0x3
    1f08:	a4 63 00 01 	l.andi r3,r3,0x1
    1f0c:	bc 03 00 00 	l.sfeqi r3,0x0
    1f10:	10 00 02 8a 	l.bf 2938 <__vfprintf_r+0x1424>
    1f14:	a8 7e 00 00 	l.ori r3,r30,0x0
    1f18:	84 83 00 00 	l.lwz r4,0x0(r3)
    1f1c:	84 a3 00 04 	l.lwz r5,0x4(r3)
    1f20:	d7 e2 21 88 	l.sw 0xfffff988(r2),r4
    1f24:	d7 e2 29 8c 	l.sw 0xfffff98c(r2),r5
    1f28:	84 62 f9 88 	l.lwz r3,0xfffff988(r2)
    1f2c:	84 82 f9 8c 	l.lwz r4,0xfffff98c(r2)
    1f30:	04 00 08 c4 	l.jal 4240 <_isinf>
    1f34:	9f de 00 08 	l.addi r30,r30,0x8
    1f38:	bc 0b 00 00 	l.sfeqi r11,0x0
    1f3c:	10 00 02 8a 	l.bf 2964 <__vfprintf_r+0x1450>
    1f40:	15 00 00 00 	l.nop 0x0
    1f44:	1a 80 00 00 	l.movhi r20,0x0
    1f48:	aa 94 cb bc 	l.ori r20,r20,0xcbbc
    1f4c:	84 62 f9 88 	l.lwz r3,0xfffff988(r2)
    1f50:	84 82 f9 8c 	l.lwz r4,0xfffff98c(r2)
    1f54:	84 b4 00 00 	l.lwz r5,0x0(r20)
    1f58:	84 d4 00 04 	l.lwz r6,0x4(r20)
    1f5c:	04 00 23 c3 	l.jal ae68 <___ltdf2>
    1f60:	15 00 00 00 	l.nop 0x0
    1f64:	bd 8b 00 00 	l.sfltsi r11,0x0
    1f68:	0c 00 00 03 	l.bnf 1f74 <__vfprintf_r+0xa60>
    1f6c:	9c c0 00 2d 	l.addi r6,r0,0x2d
    1f70:	db e2 37 ff 	l.sb 0xffffffff(r2),r6
    1f74:	1a 40 00 00 	l.movhi r18,0x0
    1f78:	aa 52 cd 5a 	l.ori r18,r18,0xcd5a
    1f7c:	03 ff fe 51 	l.j 18c0 <__vfprintf_r+0x3ac>
    1f80:	9e 80 00 03 	l.addi r20,r0,0x3
    1f84:	bc 16 00 43 	l.sfeqi r22,0x43
    1f88:	10 00 00 07 	l.bf 1fa4 <__vfprintf_r+0xa90>
    1f8c:	9e 42 fe 4c 	l.addi r18,r2,0xfffffe4c
    1f90:	b8 7a 00 44 	l.srli r3,r26,0x4
    1f94:	a4 63 00 01 	l.andi r3,r3,0x1
    1f98:	bc 23 00 00 	l.sfnei r3,0x0
    1f9c:	0c 00 03 03 	l.bnf 2ba8 <__vfprintf_r+0x1694>
    1fa0:	9e 80 00 01 	l.addi r20,r0,0x1
    1fa4:	9c 62 f9 bc 	l.addi r3,r2,0xfffff9bc
    1fa8:	9c 80 00 00 	l.addi r4,r0,0x0
    1fac:	04 00 08 ba 	l.jal 4294 <_memset>
    1fb0:	9c a0 00 08 	l.addi r5,r0,0x8
    1fb4:	84 be 00 00 	l.lwz r5,0x0(r30)
    1fb8:	a8 92 00 00 	l.ori r4,r18,0x0
    1fbc:	9c c2 f9 bc 	l.addi r6,r2,0xfffff9bc
    1fc0:	84 62 f9 9c 	l.lwz r3,0xfffff99c(r2)
    1fc4:	04 00 08 e5 	l.jal 4358 <__wcrtomb_r>
    1fc8:	9f de 00 04 	l.addi r30,r30,0x4
    1fcc:	bc 2b ff ff 	l.sfnei r11,0xffffffff
    1fd0:	0c 00 04 3b 	l.bnf 30bc <__vfprintf_r+0x1ba8>
    1fd4:	aa 8b 00 00 	l.ori r20,r11,0x0
    1fd8:	9c 80 00 00 	l.addi r4,r0,0x0
    1fdc:	03 ff fe 39 	l.j 18c0 <__vfprintf_r+0x3ac>
    1fe0:	db e2 27 ff 	l.sb 0xffffffff(r2),r4
    1fe4:	b8 7a 00 44 	l.srli r3,r26,0x4
    1fe8:	18 c0 00 00 	l.movhi r6,0x0
    1fec:	a8 c6 cd 5e 	l.ori r6,r6,0xcd5e
    1ff0:	a4 63 00 01 	l.andi r3,r3,0x1
    1ff4:	bc 03 00 00 	l.sfeqi r3,0x0
    1ff8:	0c 00 00 49 	l.bnf 211c <__vfprintf_r+0xc08>
    1ffc:	d7 e2 31 7c 	l.sw 0xfffff97c(r2),r6
    2000:	b8 7a 00 46 	l.srli r3,r26,0x6
    2004:	a4 63 00 01 	l.andi r3,r3,0x1
    2008:	bc 03 00 00 	l.sfeqi r3,0x0
    200c:	10 00 00 44 	l.bf 211c <__vfprintf_r+0xc08>
    2010:	15 00 00 00 	l.nop 0x0
    2014:	95 5e 00 02 	l.lhz r10,0x2(r30)
    2018:	9c 80 00 00 	l.addi r4,r0,0x0
    201c:	9f de 00 04 	l.addi r30,r30,0x4
    2020:	9c a0 00 02 	l.addi r5,r0,0x2
    2024:	e4 0a 20 00 	l.sfeq r10,r4
    2028:	10 00 00 03 	l.bf 2034 <__vfprintf_r+0xb20>
    202c:	a4 7a 00 01 	l.andi r3,r26,0x1
    2030:	9c 80 00 01 	l.addi r4,r0,0x1
    2034:	e0 63 20 03 	l.and r3,r3,r4
    2038:	bc 03 00 00 	l.sfeqi r3,0x0
    203c:	13 ff fd fe 	l.bf 1834 <__vfprintf_r+0x320>
    2040:	9c 60 00 00 	l.addi r3,r0,0x0
    2044:	03 ff fd fc 	l.j 1834 <__vfprintf_r+0x320>
    2048:	ab 5a 00 02 	l.ori r26,r26,0x2
    204c:	8c 8e 00 00 	l.lbz r4,0x0(r14)
    2050:	03 ff fd a5 	l.j 16e4 <__vfprintf_r+0x1d0>
    2054:	ab 5a 00 08 	l.ori r26,r26,0x8
    2058:	9d 40 00 00 	l.addi r10,r0,0x0
    205c:	b8 6a 00 03 	l.slli r3,r10,0x3
    2060:	e0 63 50 00 	l.add r3,r3,r10
    2064:	e1 63 50 00 	l.add r11,r3,r10
    2068:	e1 6b b0 00 	l.add r11,r11,r22
    206c:	92 ce 00 00 	l.lbs r22,0x0(r14)
    2070:	9d 4b ff d0 	l.addi r10,r11,0xffffffd0
    2074:	9c 76 ff d0 	l.addi r3,r22,0xffffffd0
    2078:	bc 43 00 09 	l.sfgtui r3,0x9
    207c:	0f ff ff f8 	l.bnf 205c <__vfprintf_r+0xb48>
    2080:	9d ce 00 01 	l.addi r14,r14,0x1
    2084:	03 ff fd 9b 	l.j 16f0 <__vfprintf_r+0x1dc>
    2088:	d7 e2 51 94 	l.sw 0xfffff994(r2),r10
    208c:	8c 8e 00 00 	l.lbz r4,0x0(r14)
    2090:	03 ff fd 95 	l.j 16e4 <__vfprintf_r+0x1d0>
    2094:	ab 5a 00 80 	l.ori r26,r26,0x80
    2098:	92 ce 00 00 	l.lbs r22,0x0(r14)
    209c:	bc 36 00 2a 	l.sfnei r22,0x2a
    20a0:	0c 00 04 23 	l.bnf 312c <__vfprintf_r+0x1c18>
    20a4:	9d ce 00 01 	l.addi r14,r14,0x1
    20a8:	9c 76 ff d0 	l.addi r3,r22,0xffffffd0
    20ac:	00 00 00 09 	l.j 20d0 <__vfprintf_r+0xbbc>
    20b0:	9d 40 00 00 	l.addi r10,r0,0x0
    20b4:	e0 63 50 00 	l.add r3,r3,r10
    20b8:	e1 63 50 00 	l.add r11,r3,r10
    20bc:	e1 6b b0 00 	l.add r11,r11,r22
    20c0:	92 ce 00 00 	l.lbs r22,0x0(r14)
    20c4:	9d 4b ff d0 	l.addi r10,r11,0xffffffd0
    20c8:	9c 76 ff d0 	l.addi r3,r22,0xffffffd0
    20cc:	9d ce 00 01 	l.addi r14,r14,0x1
    20d0:	bc 43 00 09 	l.sfgtui r3,0x9
    20d4:	0f ff ff f8 	l.bnf 20b4 <__vfprintf_r+0xba0>
    20d8:	b8 6a 00 03 	l.slli r3,r10,0x3
    20dc:	bd 6a ff ff 	l.sfgesi r10,0xffffffff
    20e0:	13 ff fd 84 	l.bf 16f0 <__vfprintf_r+0x1dc>
    20e4:	ab 0a 00 00 	l.ori r24,r10,0x0
    20e8:	03 ff fd 82 	l.j 16f0 <__vfprintf_r+0x1dc>
    20ec:	9f 00 ff ff 	l.addi r24,r0,0xffffffff
    20f0:	9c 60 00 2b 	l.addi r3,r0,0x2b
    20f4:	db e2 1f ff 	l.sb 0xffffffff(r2),r3
    20f8:	03 ff fd 7b 	l.j 16e4 <__vfprintf_r+0x1d0>
    20fc:	8c 8e 00 00 	l.lbz r4,0x0(r14)
    2100:	b8 7a 00 44 	l.srli r3,r26,0x4
    2104:	19 00 00 00 	l.movhi r8,0x0
    2108:	a9 08 cd 42 	l.ori r8,r8,0xcd42
    210c:	a4 63 00 01 	l.andi r3,r3,0x1
    2110:	bc 03 00 00 	l.sfeqi r3,0x0
    2114:	13 ff ff bb 	l.bf 2000 <__vfprintf_r+0xaec>
    2118:	d7 e2 41 7c 	l.sw 0xfffff97c(r2),r8
    211c:	03 ff ff bf 	l.j 2018 <__vfprintf_r+0xb04>
    2120:	85 5e 00 00 	l.lwz r10,0x0(r30)
    2124:	8c 8e 00 00 	l.lbz r4,0x0(r14)
    2128:	03 ff fd 6f 	l.j 16e4 <__vfprintf_r+0x1d0>
    212c:	ab 5a 00 01 	l.ori r26,r26,0x1
    2130:	a8 7c 00 00 	l.ori r3,r28,0x0
    2134:	07 ff fc e2 	l.jal 14bc <___sprint>
    2138:	9c 82 ff e8 	l.addi r4,r2,0xffffffe8
    213c:	bc 0b 00 00 	l.sfeqi r11,0x0
    2140:	0c 00 00 9f 	l.bnf 23bc <__vfprintf_r+0xea8>
    2144:	9e 02 ff a8 	l.addi r16,r2,0xffffffa8
    2148:	03 ff fe 3e 	l.j 1a40 <__vfprintf_r+0x52c>
    214c:	9d 4a ff f0 	l.addi r10,r10,0xfffffff0
    2150:	a8 7c 00 00 	l.ori r3,r28,0x0
    2154:	07 ff fc da 	l.jal 14bc <___sprint>
    2158:	9c 82 ff e8 	l.addi r4,r2,0xffffffe8
    215c:	bc 0b 00 00 	l.sfeqi r11,0x0
    2160:	0c 00 00 97 	l.bnf 23bc <__vfprintf_r+0xea8>
    2164:	9e 02 ff a8 	l.addi r16,r2,0xffffffa8
    2168:	03 ff fe 61 	l.j 1aec <__vfprintf_r+0x5d8>
    216c:	9d 4a ff f0 	l.addi r10,r10,0xfffffff0
    2170:	a8 7c 00 00 	l.ori r3,r28,0x0
    2174:	07 ff fc d2 	l.jal 14bc <___sprint>
    2178:	9c 82 ff e8 	l.addi r4,r2,0xffffffe8
    217c:	bc 0b 00 00 	l.sfeqi r11,0x0
    2180:	0c 00 00 8f 	l.bnf 23bc <__vfprintf_r+0xea8>
    2184:	9e 02 ff a8 	l.addi r16,r2,0xffffffa8
    2188:	03 ff fe 9d 	l.j 1bfc <__vfprintf_r+0x6e8>
    218c:	9d 4a ff f0 	l.addi r10,r10,0xfffffff0
    2190:	a4 63 00 01 	l.andi r3,r3,0x1
    2194:	bc 03 00 00 	l.sfeqi r3,0x0
    2198:	13 ff fd d7 	l.bf 18f4 <__vfprintf_r+0x3e0>
    219c:	a5 9a 00 84 	l.andi r12,r26,0x84
    21a0:	03 ff fd d5 	l.j 18f4 <__vfprintf_r+0x3e0>
    21a4:	9f 18 00 02 	l.addi r24,r24,0x2
    21a8:	a4 63 00 01 	l.andi r3,r3,0x1
    21ac:	bc 03 00 00 	l.sfeqi r3,0x0
    21b0:	13 ff fe 0c 	l.bf 19e0 <__vfprintf_r+0x4cc>
    21b4:	bc 2c 00 80 	l.sfnei r12,0x80
    21b8:	9c 60 00 30 	l.addi r3,r0,0x30
    21bc:	db e2 b6 49 	l.sb 0xfffffe49(r2),r22
    21c0:	9c c0 00 02 	l.addi r6,r0,0x2
    21c4:	db e2 1e 48 	l.sb 0xfffffe48(r2),r3
    21c8:	84 62 ff f0 	l.lwz r3,0xfffffff0(r2)
    21cc:	9c a3 00 02 	l.addi r5,r3,0x2
    21d0:	d4 10 30 04 	l.sw 0x4(r16),r6
    21d4:	84 62 ff ec 	l.lwz r3,0xffffffec(r2)
    21d8:	9c 83 00 01 	l.addi r4,r3,0x1
    21dc:	d7 e2 2f f0 	l.sw 0xfffffff0(r2),r5
    21e0:	9c 62 fe 48 	l.addi r3,r2,0xfffffe48
    21e4:	d7 e2 27 ec 	l.sw 0xffffffec(r2),r4
    21e8:	d4 10 18 00 	l.sw 0x0(r16),r3
    21ec:	bd a4 00 07 	l.sflesi r4,0x7
    21f0:	13 ff fd fb 	l.bf 19dc <__vfprintf_r+0x4c8>
    21f4:	9e 10 00 08 	l.addi r16,r16,0x8
    21f8:	a8 7c 00 00 	l.ori r3,r28,0x0
    21fc:	07 ff fc b0 	l.jal 14bc <___sprint>
    2200:	9c 82 ff e8 	l.addi r4,r2,0xffffffe8
    2204:	bc 0b 00 00 	l.sfeqi r11,0x0
    2208:	0c 00 00 6d 	l.bnf 23bc <__vfprintf_r+0xea8>
    220c:	9e 02 ff a8 	l.addi r16,r2,0xffffffa8
    2210:	03 ff fd f4 	l.j 19e0 <__vfprintf_r+0x4cc>
    2214:	bc 2c 00 80 	l.sfnei r12,0x80
    2218:	10 00 00 7c 	l.bf 2408 <__vfprintf_r+0xef4>
    221c:	85 42 f9 b4 	l.lwz r10,0xfffff9b4(r2)
    2220:	1a 80 00 00 	l.movhi r20,0x0
    2224:	aa 94 cb bc 	l.ori r20,r20,0xcbbc
    2228:	84 62 f9 88 	l.lwz r3,0xfffff988(r2)
    222c:	84 82 f9 8c 	l.lwz r4,0xfffff98c(r2)
    2230:	84 b4 00 00 	l.lwz r5,0x0(r20)
    2234:	84 d4 00 04 	l.lwz r6,0x4(r20)
    2238:	04 00 22 80 	l.jal ac38 <___eqdf2>
    223c:	15 00 00 00 	l.nop 0x0
    2240:	bc 0b 00 00 	l.sfeqi r11,0x0
    2244:	0c 00 00 a9 	l.bnf 24e8 <__vfprintf_r+0xfd4>
    2248:	84 a2 f9 b8 	l.lwz r5,0xfffff9b8(r2)
    224c:	84 62 ff f0 	l.lwz r3,0xfffffff0(r2)
    2250:	9c c0 00 01 	l.addi r6,r0,0x1
    2254:	18 a0 00 00 	l.movhi r5,0x0
    2258:	a8 a5 cd 6f 	l.ori r5,r5,0xcd6f
    225c:	e0 83 30 00 	l.add r4,r3,r6
    2260:	d4 10 28 00 	l.sw 0x0(r16),r5
    2264:	84 62 ff ec 	l.lwz r3,0xffffffec(r2)
    2268:	d4 10 30 04 	l.sw 0x4(r16),r6
    226c:	e0 63 30 00 	l.add r3,r3,r6
    2270:	9e 10 00 08 	l.addi r16,r16,0x8
    2274:	d7 e2 27 f0 	l.sw 0xfffffff0(r2),r4
    2278:	bd a3 00 07 	l.sflesi r3,0x7
    227c:	0c 00 02 1d 	l.bnf 2af0 <__vfprintf_r+0x15dc>
    2280:	d7 e2 1f ec 	l.sw 0xffffffec(r2),r3
    2284:	85 42 f9 b4 	l.lwz r10,0xfffff9b4(r2)
    2288:	84 62 f9 b8 	l.lwz r3,0xfffff9b8(r2)
    228c:	e5 83 50 00 	l.sflts r3,r10
    2290:	10 00 00 07 	l.bf 22ac <__vfprintf_r+0xd98>
    2294:	84 62 ff f0 	l.lwz r3,0xfffffff0(r2)
    2298:	a4 7a 00 01 	l.andi r3,r26,0x1
    229c:	bc 23 00 00 	l.sfnei r3,0x0
    22a0:	0f ff fe 3c 	l.bnf 1b90 <__vfprintf_r+0x67c>
    22a4:	b8 7a 00 42 	l.srli r3,r26,0x2
    22a8:	84 62 ff f0 	l.lwz r3,0xfffffff0(r2)
    22ac:	9d 00 00 01 	l.addi r8,r0,0x1
    22b0:	e0 83 40 00 	l.add r4,r3,r8
    22b4:	84 a2 f9 90 	l.lwz r5,0xfffff990(r2)
    22b8:	84 62 ff ec 	l.lwz r3,0xffffffec(r2)
    22bc:	d4 10 40 04 	l.sw 0x4(r16),r8
    22c0:	e0 63 40 00 	l.add r3,r3,r8
    22c4:	d4 10 28 00 	l.sw 0x0(r16),r5
    22c8:	d7 e2 27 f0 	l.sw 0xfffffff0(r2),r4
    22cc:	9e 10 00 08 	l.addi r16,r16,0x8
    22d0:	bd a3 00 07 	l.sflesi r3,0x7
    22d4:	0c 00 02 39 	l.bnf 2bb8 <__vfprintf_r+0x16a4>
    22d8:	d7 e2 1f ec 	l.sw 0xffffffec(r2),r3
    22dc:	9d 4a ff ff 	l.addi r10,r10,0xffffffff
    22e0:	bd aa 00 00 	l.sflesi r10,0x0
    22e4:	13 ff fe 2a 	l.bf 1b8c <__vfprintf_r+0x678>
    22e8:	bd aa 00 10 	l.sflesi r10,0x10
    22ec:	10 00 00 14 	l.bf 233c <__vfprintf_r+0xe28>
    22f0:	15 00 00 00 	l.nop 0x0
    22f4:	84 62 ff f0 	l.lwz r3,0xfffffff0(r2)
    22f8:	9d 00 00 10 	l.addi r8,r0,0x10
    22fc:	18 c0 00 00 	l.movhi r6,0x0
    2300:	a8 c6 cb ac 	l.ori r6,r6,0xcbac
    2304:	e0 83 40 00 	l.add r4,r3,r8
    2308:	d4 10 30 00 	l.sw 0x0(r16),r6
    230c:	84 62 ff ec 	l.lwz r3,0xffffffec(r2)
    2310:	d4 10 40 04 	l.sw 0x4(r16),r8
    2314:	9c 63 00 01 	l.addi r3,r3,0x1
    2318:	9e 10 00 08 	l.addi r16,r16,0x8
    231c:	d7 e2 27 f0 	l.sw 0xfffffff0(r2),r4
    2320:	bd a3 00 07 	l.sflesi r3,0x7
    2324:	0c 00 00 0f 	l.bnf 2360 <__vfprintf_r+0xe4c>
    2328:	d7 e2 1f ec 	l.sw 0xffffffec(r2),r3
    232c:	9d 4a ff f0 	l.addi r10,r10,0xfffffff0
    2330:	bd aa 00 10 	l.sflesi r10,0x10
    2334:	0f ff ff f0 	l.bnf 22f4 <__vfprintf_r+0xde0>
    2338:	15 00 00 00 	l.nop 0x0
    233c:	18 60 00 00 	l.movhi r3,0x0
    2340:	a8 63 cb ac 	l.ori r3,r3,0xcbac
    2344:	d4 10 50 04 	l.sw 0x4(r16),r10
    2348:	d4 10 18 00 	l.sw 0x0(r16),r3
    234c:	84 62 ff f0 	l.lwz r3,0xfffffff0(r2)
    2350:	e0 83 50 00 	l.add r4,r3,r10
    2354:	84 62 ff ec 	l.lwz r3,0xffffffec(r2)
    2358:	03 ff fe 07 	l.j 1b74 <__vfprintf_r+0x660>
    235c:	9c 63 00 01 	l.addi r3,r3,0x1
    2360:	a8 7c 00 00 	l.ori r3,r28,0x0
    2364:	07 ff fc 56 	l.jal 14bc <___sprint>
    2368:	9c 82 ff e8 	l.addi r4,r2,0xffffffe8
    236c:	bc 0b 00 00 	l.sfeqi r11,0x0
    2370:	0c 00 00 13 	l.bnf 23bc <__vfprintf_r+0xea8>
    2374:	9e 02 ff a8 	l.addi r16,r2,0xffffffa8
    2378:	03 ff ff ee 	l.j 2330 <__vfprintf_r+0xe1c>
    237c:	9d 4a ff f0 	l.addi r10,r10,0xfffffff0
    2380:	13 ff fe 5a 	l.bf 1ce8 <__vfprintf_r+0x7d4>
    2384:	e0 82 90 02 	l.sub r4,r2,r18
    2388:	a4 7a 00 01 	l.andi r3,r26,0x1
    238c:	bc 03 00 00 	l.sfeqi r3,0x0
    2390:	13 ff fe 56 	l.bf 1ce8 <__vfprintf_r+0x7d4>
    2394:	9c a0 00 30 	l.addi r5,r0,0x30
    2398:	9e 42 ff a7 	l.addi r18,r2,0xffffffa7
    239c:	03 ff fe 52 	l.j 1ce4 <__vfprintf_r+0x7d0>
    23a0:	d8 12 28 00 	l.sb 0x0(r18),r5
    23a4:	a8 7c 00 00 	l.ori r3,r28,0x0
    23a8:	07 ff fc 45 	l.jal 14bc <___sprint>
    23ac:	9c 82 ff e8 	l.addi r4,r2,0xffffffe8
    23b0:	bc 0b 00 00 	l.sfeqi r11,0x0
    23b4:	13 ff fe 31 	l.bf 1c78 <__vfprintf_r+0x764>
    23b8:	15 00 00 00 	l.nop 0x0
    23bc:	85 02 f9 78 	l.lwz r8,0xfffff978(r2)
    23c0:	bc 08 00 00 	l.sfeqi r8,0x0
    23c4:	0c 00 01 d3 	l.bnf 2b10 <__vfprintf_r+0x15fc>
    23c8:	84 62 f9 9c 	l.lwz r3,0xfffff99c(r2)
    23cc:	94 7c 00 0c 	l.lhz r3,0xc(r28)
    23d0:	b8 63 00 46 	l.srli r3,r3,0x6
    23d4:	a4 63 00 01 	l.andi r3,r3,0x1
    23d8:	bc 23 00 00 	l.sfnei r3,0x0
    23dc:	13 ff fc e2 	l.bf 1764 <__vfprintf_r+0x250>
    23e0:	15 00 00 00 	l.nop 0x0
    23e4:	00 00 03 59 	l.j 3148 <__vfprintf_r+0x1c34>
    23e8:	85 62 f9 98 	l.lwz r11,0xfffff998(r2)
    23ec:	07 ff fc 34 	l.jal 14bc <___sprint>
    23f0:	9c 82 ff e8 	l.addi r4,r2,0xffffffe8
    23f4:	bc 0b 00 00 	l.sfeqi r11,0x0
    23f8:	0f ff ff f1 	l.bnf 23bc <__vfprintf_r+0xea8>
    23fc:	9e 02 ff a8 	l.addi r16,r2,0xffffffa8
    2400:	03 ff fd e4 	l.j 1b90 <__vfprintf_r+0x67c>
    2404:	b8 7a 00 42 	l.srli r3,r26,0x2
    2408:	bd 4a 00 01 	l.sfgtsi r10,0x1
    240c:	10 00 00 05 	l.bf 2420 <__vfprintf_r+0xf0c>
    2410:	a4 7a 00 01 	l.andi r3,r26,0x1
    2414:	bc 23 00 00 	l.sfnei r3,0x0
    2418:	0c 00 01 2d 	l.bnf 28cc <__vfprintf_r+0x13b8>
    241c:	84 62 ff f0 	l.lwz r3,0xfffffff0(r2)
    2420:	8c 92 00 00 	l.lbz r4,0x0(r18)
    2424:	9c 60 00 2e 	l.addi r3,r0,0x2e
    2428:	9c c0 00 02 	l.addi r6,r0,0x2
    242c:	db e2 1e 49 	l.sb 0xfffffe49(r2),r3
    2430:	9e 52 00 01 	l.addi r18,r18,0x1
    2434:	84 62 ff f0 	l.lwz r3,0xfffffff0(r2)
    2438:	9c a3 00 02 	l.addi r5,r3,0x2
    243c:	db e2 26 48 	l.sb 0xfffffe48(r2),r4
    2440:	84 62 ff ec 	l.lwz r3,0xffffffec(r2)
    2444:	9c 83 00 01 	l.addi r4,r3,0x1
    2448:	d4 10 30 04 	l.sw 0x4(r16),r6
    244c:	9c 62 fe 48 	l.addi r3,r2,0xfffffe48
    2450:	d7 e2 2f f0 	l.sw 0xfffffff0(r2),r5
    2454:	d4 10 18 00 	l.sw 0x0(r16),r3
    2458:	d7 e2 27 ec 	l.sw 0xffffffec(r2),r4
    245c:	bd a4 00 07 	l.sflesi r4,0x7
    2460:	0c 00 01 2e 	l.bnf 2918 <__vfprintf_r+0x1404>
    2464:	9e 10 00 08 	l.addi r16,r16,0x8
    2468:	1a 80 00 00 	l.movhi r20,0x0
    246c:	aa 94 cb bc 	l.ori r20,r20,0xcbbc
    2470:	84 62 f9 88 	l.lwz r3,0xfffff988(r2)
    2474:	84 82 f9 8c 	l.lwz r4,0xfffff98c(r2)
    2478:	84 b4 00 00 	l.lwz r5,0x0(r20)
    247c:	84 d4 00 04 	l.lwz r6,0x4(r20)
    2480:	04 00 22 11 	l.jal acc4 <___nedf2>
    2484:	15 00 00 00 	l.nop 0x0
    2488:	bc 2b 00 00 	l.sfnei r11,0x0
    248c:	0c 00 00 82 	l.bnf 2694 <__vfprintf_r+0x1180>
    2490:	84 62 ff f0 	l.lwz r3,0xfffffff0(r2)
    2494:	9c 8a ff ff 	l.addi r4,r10,0xffffffff
    2498:	e0 a3 50 00 	l.add r5,r3,r10
    249c:	d4 10 90 00 	l.sw 0x0(r16),r18
    24a0:	84 62 ff ec 	l.lwz r3,0xffffffec(r2)
    24a4:	9c a5 ff ff 	l.addi r5,r5,0xffffffff
    24a8:	9c 63 00 01 	l.addi r3,r3,0x1
    24ac:	d4 10 20 04 	l.sw 0x4(r16),r4
    24b0:	d7 e2 2f f0 	l.sw 0xfffffff0(r2),r5
    24b4:	9e 10 00 08 	l.addi r16,r16,0x8
    24b8:	bd a3 00 07 	l.sflesi r3,0x7
    24bc:	0c 00 01 0f 	l.bnf 28f8 <__vfprintf_r+0x13e4>
    24c0:	d7 e2 1f ec 	l.sw 0xffffffec(r2),r3
    24c4:	84 62 ff f0 	l.lwz r3,0xfffffff0(r2)
    24c8:	84 c2 f9 84 	l.lwz r6,0xfffff984(r2)
    24cc:	e0 83 30 00 	l.add r4,r3,r6
    24d0:	d4 10 30 04 	l.sw 0x4(r16),r6
    24d4:	9c 62 ff f4 	l.addi r3,r2,0xfffffff4
    24d8:	d4 10 18 00 	l.sw 0x0(r16),r3
    24dc:	84 62 ff ec 	l.lwz r3,0xffffffec(r2)
    24e0:	03 ff fd a5 	l.j 1b74 <__vfprintf_r+0x660>
    24e4:	9c 63 00 01 	l.addi r3,r3,0x1
    24e8:	bd 45 00 00 	l.sfgtsi r5,0x0
    24ec:	10 00 00 a9 	l.bf 2790 <__vfprintf_r+0x127c>
    24f0:	85 42 f9 b4 	l.lwz r10,0xfffff9b4(r2)
    24f4:	18 80 00 00 	l.movhi r4,0x0
    24f8:	a8 84 cd 6f 	l.ori r4,r4,0xcd6f
    24fc:	84 62 ff f0 	l.lwz r3,0xfffffff0(r2)
    2500:	9c c0 00 01 	l.addi r6,r0,0x1
    2504:	d4 10 20 00 	l.sw 0x0(r16),r4
    2508:	d4 10 30 04 	l.sw 0x4(r16),r6
    250c:	e0 83 30 00 	l.add r4,r3,r6
    2510:	9e 10 00 08 	l.addi r16,r16,0x8
    2514:	84 62 ff ec 	l.lwz r3,0xffffffec(r2)
    2518:	e0 63 30 00 	l.add r3,r3,r6
    251c:	d7 e2 27 f0 	l.sw 0xfffffff0(r2),r4
    2520:	bd a3 00 07 	l.sflesi r3,0x7
    2524:	0c 00 01 b1 	l.bnf 2be8 <__vfprintf_r+0x16d4>
    2528:	d7 e2 1f ec 	l.sw 0xffffffec(r2),r3
    252c:	bc 25 00 00 	l.sfnei r5,0x0
    2530:	10 00 00 07 	l.bf 254c <__vfprintf_r+0x1038>
    2534:	84 62 ff f0 	l.lwz r3,0xfffffff0(r2)
    2538:	84 62 f9 b4 	l.lwz r3,0xfffff9b4(r2)
    253c:	bc 23 00 00 	l.sfnei r3,0x0
    2540:	0f ff fd 94 	l.bnf 1b90 <__vfprintf_r+0x67c>
    2544:	b8 7a 00 42 	l.srli r3,r26,0x2
    2548:	84 62 ff f0 	l.lwz r3,0xfffffff0(r2)
    254c:	9d 00 00 01 	l.addi r8,r0,0x1
    2550:	e0 83 40 00 	l.add r4,r3,r8
    2554:	84 c2 f9 90 	l.lwz r6,0xfffff990(r2)
    2558:	84 62 ff ec 	l.lwz r3,0xffffffec(r2)
    255c:	d4 10 40 04 	l.sw 0x4(r16),r8
    2560:	e0 63 40 00 	l.add r3,r3,r8
    2564:	d4 10 30 00 	l.sw 0x0(r16),r6
    2568:	d7 e2 27 f0 	l.sw 0xfffffff0(r2),r4
    256c:	9e 10 00 08 	l.addi r16,r16,0x8
    2570:	bd a3 00 07 	l.sflesi r3,0x7
    2574:	0c 00 01 b3 	l.bnf 2c40 <__vfprintf_r+0x172c>
    2578:	d7 e2 1f ec 	l.sw 0xffffffec(r2),r3
    257c:	e1 40 28 02 	l.sub r10,r0,r5
    2580:	bd aa 00 00 	l.sflesi r10,0x0
    2584:	10 00 00 29 	l.bf 2628 <__vfprintf_r+0x1114>
    2588:	15 00 00 00 	l.nop 0x0
    258c:	bd aa 00 10 	l.sflesi r10,0x10
    2590:	10 00 00 13 	l.bf 25dc <__vfprintf_r+0x10c8>
    2594:	9c 60 00 10 	l.addi r3,r0,0x10
    2598:	19 00 00 00 	l.movhi r8,0x0
    259c:	a9 08 cb ac 	l.ori r8,r8,0xcbac
    25a0:	d4 10 18 04 	l.sw 0x4(r16),r3
    25a4:	d4 10 40 00 	l.sw 0x0(r16),r8
    25a8:	84 62 ff f0 	l.lwz r3,0xfffffff0(r2)
    25ac:	9e 10 00 08 	l.addi r16,r16,0x8
    25b0:	9c 83 00 10 	l.addi r4,r3,0x10
    25b4:	84 62 ff ec 	l.lwz r3,0xffffffec(r2)
    25b8:	9c 63 00 01 	l.addi r3,r3,0x1
    25bc:	d7 e2 27 f0 	l.sw 0xfffffff0(r2),r4
    25c0:	bd a3 00 07 	l.sflesi r3,0x7
    25c4:	0c 00 00 26 	l.bnf 265c <__vfprintf_r+0x1148>
    25c8:	d7 e2 1f ec 	l.sw 0xffffffec(r2),r3
    25cc:	9d 4a ff f0 	l.addi r10,r10,0xfffffff0
    25d0:	bd aa 00 10 	l.sflesi r10,0x10
    25d4:	0f ff ff f1 	l.bnf 2598 <__vfprintf_r+0x1084>
    25d8:	9c 60 00 10 	l.addi r3,r0,0x10
    25dc:	18 80 00 00 	l.movhi r4,0x0
    25e0:	a8 84 cb ac 	l.ori r4,r4,0xcbac
    25e4:	84 62 ff f0 	l.lwz r3,0xfffffff0(r2)
    25e8:	d4 10 20 00 	l.sw 0x0(r16),r4
    25ec:	d4 10 50 04 	l.sw 0x4(r16),r10
    25f0:	e0 83 50 00 	l.add r4,r3,r10
    25f4:	9e 10 00 08 	l.addi r16,r16,0x8
    25f8:	84 62 ff ec 	l.lwz r3,0xffffffec(r2)
    25fc:	9c 63 00 01 	l.addi r3,r3,0x1
    2600:	d7 e2 27 f0 	l.sw 0xfffffff0(r2),r4
    2604:	bd a3 00 07 	l.sflesi r3,0x7
    2608:	10 00 00 08 	l.bf 2628 <__vfprintf_r+0x1114>
    260c:	d7 e2 1f ec 	l.sw 0xffffffec(r2),r3
    2610:	a8 7c 00 00 	l.ori r3,r28,0x0
    2614:	07 ff fb aa 	l.jal 14bc <___sprint>
    2618:	9c 82 ff e8 	l.addi r4,r2,0xffffffe8
    261c:	bc 0b 00 00 	l.sfeqi r11,0x0
    2620:	0f ff ff 67 	l.bnf 23bc <__vfprintf_r+0xea8>
    2624:	9e 02 ff a8 	l.addi r16,r2,0xffffffa8
    2628:	84 a2 f9 b4 	l.lwz r5,0xfffff9b4(r2)
    262c:	84 62 ff ec 	l.lwz r3,0xffffffec(r2)
    2630:	d4 10 28 04 	l.sw 0x4(r16),r5
    2634:	84 82 f9 b4 	l.lwz r4,0xfffff9b4(r2)
    2638:	9c a3 00 01 	l.addi r5,r3,0x1
    263c:	84 62 ff f0 	l.lwz r3,0xfffffff0(r2)
    2640:	bd a5 00 07 	l.sflesi r5,0x7
    2644:	d4 10 90 00 	l.sw 0x0(r16),r18
    2648:	e0 63 20 00 	l.add r3,r3,r4
    264c:	9e 10 00 08 	l.addi r16,r16,0x8
    2650:	d7 e2 1f f0 	l.sw 0xfffffff0(r2),r3
    2654:	03 ff fd 4c 	l.j 1b84 <__vfprintf_r+0x670>
    2658:	d7 e2 2f ec 	l.sw 0xffffffec(r2),r5
    265c:	a8 7c 00 00 	l.ori r3,r28,0x0
    2660:	07 ff fb 97 	l.jal 14bc <___sprint>
    2664:	9c 82 ff e8 	l.addi r4,r2,0xffffffe8
    2668:	bc 0b 00 00 	l.sfeqi r11,0x0
    266c:	0f ff ff 54 	l.bnf 23bc <__vfprintf_r+0xea8>
    2670:	9e 02 ff a8 	l.addi r16,r2,0xffffffa8
    2674:	03 ff ff d7 	l.j 25d0 <__vfprintf_r+0x10bc>
    2678:	9d 4a ff f0 	l.addi r10,r10,0xfffffff0
    267c:	03 ff fc 6b 	l.j 1828 <__vfprintf_r+0x314>
    2680:	85 5e 00 00 	l.lwz r10,0x0(r30)
    2684:	03 ff fd bf 	l.j 1d80 <__vfprintf_r+0x86c>
    2688:	85 5e 00 00 	l.lwz r10,0x0(r30)
    268c:	03 ff fd d0 	l.j 1dcc <__vfprintf_r+0x8b8>
    2690:	85 5e 00 00 	l.lwz r10,0x0(r30)
    2694:	9d 4a ff ff 	l.addi r10,r10,0xffffffff
    2698:	bd aa 00 00 	l.sflesi r10,0x0
    269c:	13 ff ff 8c 	l.bf 24cc <__vfprintf_r+0xfb8>
    26a0:	84 c2 f9 84 	l.lwz r6,0xfffff984(r2)
    26a4:	bd aa 00 10 	l.sflesi r10,0x10
    26a8:	10 00 00 14 	l.bf 26f8 <__vfprintf_r+0x11e4>
    26ac:	15 00 00 00 	l.nop 0x0
    26b0:	9c 60 00 10 	l.addi r3,r0,0x10
    26b4:	19 00 00 00 	l.movhi r8,0x0
    26b8:	a9 08 cb ac 	l.ori r8,r8,0xcbac
    26bc:	d4 10 18 04 	l.sw 0x4(r16),r3
    26c0:	d4 10 40 00 	l.sw 0x0(r16),r8
    26c4:	84 62 ff f0 	l.lwz r3,0xfffffff0(r2)
    26c8:	9e 10 00 08 	l.addi r16,r16,0x8
    26cc:	9c 83 00 10 	l.addi r4,r3,0x10
    26d0:	84 62 ff ec 	l.lwz r3,0xffffffec(r2)
    26d4:	9c 63 00 01 	l.addi r3,r3,0x1
    26d8:	d7 e2 27 f0 	l.sw 0xfffffff0(r2),r4
    26dc:	bd a3 00 07 	l.sflesi r3,0x7
    26e0:	0c 00 00 0f 	l.bnf 271c <__vfprintf_r+0x1208>
    26e4:	d7 e2 1f ec 	l.sw 0xffffffec(r2),r3
    26e8:	9d 4a ff f0 	l.addi r10,r10,0xfffffff0
    26ec:	bd aa 00 10 	l.sflesi r10,0x10
    26f0:	0f ff ff f0 	l.bnf 26b0 <__vfprintf_r+0x119c>
    26f4:	15 00 00 00 	l.nop 0x0
    26f8:	18 80 00 00 	l.movhi r4,0x0
    26fc:	a8 84 cb ac 	l.ori r4,r4,0xcbac
    2700:	84 62 ff f0 	l.lwz r3,0xfffffff0(r2)
    2704:	d4 10 20 00 	l.sw 0x0(r16),r4
    2708:	d4 10 50 04 	l.sw 0x4(r16),r10
    270c:	e0 83 50 00 	l.add r4,r3,r10
    2710:	84 62 ff ec 	l.lwz r3,0xffffffec(r2)
    2714:	00 00 00 74 	l.j 28e4 <__vfprintf_r+0x13d0>
    2718:	9c 63 00 01 	l.addi r3,r3,0x1
    271c:	a8 7c 00 00 	l.ori r3,r28,0x0
    2720:	07 ff fb 67 	l.jal 14bc <___sprint>
    2724:	9c 82 ff e8 	l.addi r4,r2,0xffffffe8
    2728:	bc 0b 00 00 	l.sfeqi r11,0x0
    272c:	0f ff ff 24 	l.bnf 23bc <__vfprintf_r+0xea8>
    2730:	9e 02 ff a8 	l.addi r16,r2,0xffffffa8
    2734:	03 ff ff ee 	l.j 26ec <__vfprintf_r+0x11d8>
    2738:	9d 4a ff f0 	l.addi r10,r10,0xfffffff0
    273c:	0f ff fc 5c 	l.bnf 18ac <__vfprintf_r+0x398>
    2740:	15 00 00 00 	l.nop 0x0
    2744:	84 82 f9 7c 	l.lwz r4,0xfffff97c(r2)
    2748:	a4 6a 00 0f 	l.andi r3,r10,0xf
    274c:	9e 52 ff ff 	l.addi r18,r18,0xffffffff
    2750:	e0 63 20 00 	l.add r3,r3,r4
    2754:	b9 4a 00 44 	l.srli r10,r10,0x4
    2758:	8c 63 00 00 	l.lbz r3,0x0(r3)
    275c:	bc 0a 00 00 	l.sfeqi r10,0x0
    2760:	0f ff ff f9 	l.bnf 2744 <__vfprintf_r+0x1230>
    2764:	d8 12 18 00 	l.sb 0x0(r18),r3
    2768:	03 ff fd 60 	l.j 1ce8 <__vfprintf_r+0x7d4>
    276c:	e0 82 90 02 	l.sub r4,r2,r18
    2770:	a8 7c 00 00 	l.ori r3,r28,0x0
    2774:	07 ff fb 52 	l.jal 14bc <___sprint>
    2778:	9c 82 ff e8 	l.addi r4,r2,0xffffffe8
    277c:	bc 0b 00 00 	l.sfeqi r11,0x0
    2780:	0f ff ff 0f 	l.bnf 23bc <__vfprintf_r+0xea8>
    2784:	9e 02 ff a8 	l.addi r16,r2,0xffffffa8
    2788:	03 ff fc 83 	l.j 1994 <__vfprintf_r+0x480>
    278c:	8c 82 ff ff 	l.lbz r4,0xffffffff(r2)
    2790:	e5 85 50 00 	l.sflts r5,r10
    2794:	10 00 00 e3 	l.bf 2b20 <__vfprintf_r+0x160c>
    2798:	84 62 ff f0 	l.lwz r3,0xfffffff0(r2)
    279c:	e0 83 50 00 	l.add r4,r3,r10
    27a0:	d4 10 90 00 	l.sw 0x0(r16),r18
    27a4:	84 62 ff ec 	l.lwz r3,0xffffffec(r2)
    27a8:	d4 10 50 04 	l.sw 0x4(r16),r10
    27ac:	9c 63 00 01 	l.addi r3,r3,0x1
    27b0:	d7 e2 27 f0 	l.sw 0xfffffff0(r2),r4
    27b4:	9e 10 00 08 	l.addi r16,r16,0x8
    27b8:	bd a3 00 07 	l.sflesi r3,0x7
    27bc:	0c 00 01 c3 	l.bnf 2ec8 <__vfprintf_r+0x19b4>
    27c0:	d7 e2 1f ec 	l.sw 0xffffffec(r2),r3
    27c4:	e1 45 50 02 	l.sub r10,r5,r10
    27c8:	bd aa 00 00 	l.sflesi r10,0x0
    27cc:	10 00 00 2a 	l.bf 2874 <__vfprintf_r+0x1360>
    27d0:	a4 7a 00 01 	l.andi r3,r26,0x1
    27d4:	bd aa 00 10 	l.sflesi r10,0x10
    27d8:	10 00 00 13 	l.bf 2824 <__vfprintf_r+0x1310>
    27dc:	84 62 ff f0 	l.lwz r3,0xfffffff0(r2)
    27e0:	9d 00 00 10 	l.addi r8,r0,0x10
    27e4:	18 c0 00 00 	l.movhi r6,0x0
    27e8:	a8 c6 cb ac 	l.ori r6,r6,0xcbac
    27ec:	e0 83 40 00 	l.add r4,r3,r8
    27f0:	d4 10 30 00 	l.sw 0x0(r16),r6
    27f4:	84 62 ff ec 	l.lwz r3,0xffffffec(r2)
    27f8:	d4 10 40 04 	l.sw 0x4(r16),r8
    27fc:	9c 63 00 01 	l.addi r3,r3,0x1
    2800:	9e 10 00 08 	l.addi r16,r16,0x8
    2804:	d7 e2 27 f0 	l.sw 0xfffffff0(r2),r4
    2808:	bd a3 00 07 	l.sflesi r3,0x7
    280c:	0c 00 00 28 	l.bnf 28ac <__vfprintf_r+0x1398>
    2810:	d7 e2 1f ec 	l.sw 0xffffffec(r2),r3
    2814:	9d 4a ff f0 	l.addi r10,r10,0xfffffff0
    2818:	bd aa 00 10 	l.sflesi r10,0x10
    281c:	0f ff ff f1 	l.bnf 27e0 <__vfprintf_r+0x12cc>
    2820:	84 62 ff f0 	l.lwz r3,0xfffffff0(r2)
    2824:	18 60 00 00 	l.movhi r3,0x0
    2828:	a8 63 cb ac 	l.ori r3,r3,0xcbac
    282c:	d4 10 50 04 	l.sw 0x4(r16),r10
    2830:	d4 10 18 00 	l.sw 0x0(r16),r3
    2834:	84 62 ff f0 	l.lwz r3,0xfffffff0(r2)
    2838:	9e 10 00 08 	l.addi r16,r16,0x8
    283c:	e0 83 50 00 	l.add r4,r3,r10
    2840:	84 62 ff ec 	l.lwz r3,0xffffffec(r2)
    2844:	9c 63 00 01 	l.addi r3,r3,0x1
    2848:	d7 e2 27 f0 	l.sw 0xfffffff0(r2),r4
    284c:	bd a3 00 07 	l.sflesi r3,0x7
    2850:	10 00 00 08 	l.bf 2870 <__vfprintf_r+0x135c>
    2854:	d7 e2 1f ec 	l.sw 0xffffffec(r2),r3
    2858:	a8 7c 00 00 	l.ori r3,r28,0x0
    285c:	07 ff fb 18 	l.jal 14bc <___sprint>
    2860:	9c 82 ff e8 	l.addi r4,r2,0xffffffe8
    2864:	bc 0b 00 00 	l.sfeqi r11,0x0
    2868:	0f ff fe d5 	l.bnf 23bc <__vfprintf_r+0xea8>
    286c:	9e 02 ff a8 	l.addi r16,r2,0xffffffa8
    2870:	a4 7a 00 01 	l.andi r3,r26,0x1
    2874:	bc 03 00 00 	l.sfeqi r3,0x0
    2878:	13 ff fc c5 	l.bf 1b8c <__vfprintf_r+0x678>
    287c:	84 62 ff f0 	l.lwz r3,0xfffffff0(r2)
    2880:	18 80 00 00 	l.movhi r4,0x0
    2884:	a8 84 cd 71 	l.ori r4,r4,0xcd71
    2888:	9c a0 00 01 	l.addi r5,r0,0x1
    288c:	d4 10 20 00 	l.sw 0x0(r16),r4
    2890:	d4 10 28 04 	l.sw 0x4(r16),r5
    2894:	e0 83 28 00 	l.add r4,r3,r5
    2898:	9e 10 00 08 	l.addi r16,r16,0x8
    289c:	84 62 ff ec 	l.lwz r3,0xffffffec(r2)
    28a0:	d7 e2 27 f0 	l.sw 0xfffffff0(r2),r4
    28a4:	03 ff fc b6 	l.j 1b7c <__vfprintf_r+0x668>
    28a8:	e0 63 28 00 	l.add r3,r3,r5
    28ac:	a8 7c 00 00 	l.ori r3,r28,0x0
    28b0:	07 ff fb 03 	l.jal 14bc <___sprint>
    28b4:	9c 82 ff e8 	l.addi r4,r2,0xffffffe8
    28b8:	bc 0b 00 00 	l.sfeqi r11,0x0
    28bc:	0f ff fe c0 	l.bnf 23bc <__vfprintf_r+0xea8>
    28c0:	9e 02 ff a8 	l.addi r16,r2,0xffffffa8
    28c4:	03 ff ff d5 	l.j 2818 <__vfprintf_r+0x1304>
    28c8:	9d 4a ff f0 	l.addi r10,r10,0xfffffff0
    28cc:	9c a0 00 01 	l.addi r5,r0,0x1
    28d0:	e0 83 28 00 	l.add r4,r3,r5
    28d4:	d4 10 28 04 	l.sw 0x4(r16),r5
    28d8:	84 62 ff ec 	l.lwz r3,0xffffffec(r2)
    28dc:	d4 10 90 00 	l.sw 0x0(r16),r18
    28e0:	e0 63 28 00 	l.add r3,r3,r5
    28e4:	d7 e2 27 f0 	l.sw 0xfffffff0(r2),r4
    28e8:	9e 10 00 08 	l.addi r16,r16,0x8
    28ec:	bd a3 00 07 	l.sflesi r3,0x7
    28f0:	13 ff fe f5 	l.bf 24c4 <__vfprintf_r+0xfb0>
    28f4:	d7 e2 1f ec 	l.sw 0xffffffec(r2),r3
    28f8:	a8 7c 00 00 	l.ori r3,r28,0x0
    28fc:	07 ff fa f0 	l.jal 14bc <___sprint>
    2900:	9c 82 ff e8 	l.addi r4,r2,0xffffffe8
    2904:	bc 0b 00 00 	l.sfeqi r11,0x0
    2908:	0f ff fe ad 	l.bnf 23bc <__vfprintf_r+0xea8>
    290c:	9e 02 ff a8 	l.addi r16,r2,0xffffffa8
    2910:	03 ff fe ee 	l.j 24c8 <__vfprintf_r+0xfb4>
    2914:	84 62 ff f0 	l.lwz r3,0xfffffff0(r2)
    2918:	a8 7c 00 00 	l.ori r3,r28,0x0
    291c:	07 ff fa e8 	l.jal 14bc <___sprint>
    2920:	9c 82 ff e8 	l.addi r4,r2,0xffffffe8
    2924:	bc 0b 00 00 	l.sfeqi r11,0x0
    2928:	0f ff fe a5 	l.bnf 23bc <__vfprintf_r+0xea8>
    292c:	85 42 f9 b4 	l.lwz r10,0xfffff9b4(r2)
    2930:	03 ff fe ce 	l.j 2468 <__vfprintf_r+0xf54>
    2934:	9e 02 ff a8 	l.addi r16,r2,0xffffffa8
    2938:	84 a3 00 00 	l.lwz r5,0x0(r3)
    293c:	84 c3 00 04 	l.lwz r6,0x4(r3)
    2940:	d7 e2 29 88 	l.sw 0xfffff988(r2),r5
    2944:	d7 e2 31 8c 	l.sw 0xfffff98c(r2),r6
    2948:	84 62 f9 88 	l.lwz r3,0xfffff988(r2)
    294c:	84 82 f9 8c 	l.lwz r4,0xfffff98c(r2)
    2950:	04 00 06 3c 	l.jal 4240 <_isinf>
    2954:	9f de 00 08 	l.addi r30,r30,0x8
    2958:	bc 0b 00 00 	l.sfeqi r11,0x0
    295c:	0f ff fd 7a 	l.bnf 1f44 <__vfprintf_r+0xa30>
    2960:	15 00 00 00 	l.nop 0x0
    2964:	84 62 f9 88 	l.lwz r3,0xfffff988(r2)
    2968:	84 82 f9 8c 	l.lwz r4,0xfffff98c(r2)
    296c:	04 00 06 ab 	l.jal 4418 <_isnan>
    2970:	15 00 00 00 	l.nop 0x0
    2974:	bc 0b 00 00 	l.sfeqi r11,0x0
    2978:	10 00 00 ba 	l.bf 2c60 <__vfprintf_r+0x174c>
    297c:	a9 98 00 00 	l.ori r12,r24,0x0
    2980:	1a 40 00 00 	l.movhi r18,0x0
    2984:	aa 52 cd 73 	l.ori r18,r18,0xcd73
    2988:	03 ff fb ce 	l.j 18c0 <__vfprintf_r+0x3ac>
    298c:	9e 80 00 03 	l.addi r20,r0,0x3
    2990:	bc 16 00 53 	l.sfeqi r22,0x53
    2994:	10 00 00 06 	l.bf 29ac <__vfprintf_r+0x1498>
    2998:	b8 7a 00 44 	l.srli r3,r26,0x4
    299c:	a4 63 00 01 	l.andi r3,r3,0x1
    29a0:	bc 23 00 00 	l.sfnei r3,0x0
    29a4:	0c 00 00 99 	l.bnf 2c08 <__vfprintf_r+0x16f4>
    29a8:	bd 98 00 00 	l.sfltsi r24,0x0
    29ac:	9e 80 00 00 	l.addi r20,r0,0x0
    29b0:	d7 e2 91 a0 	l.sw 0xfffff9a0(r2),r18
    29b4:	9c 62 f9 a4 	l.addi r3,r2,0xfffff9a4
    29b8:	a8 94 00 00 	l.ori r4,r20,0x0
    29bc:	9c a0 00 08 	l.addi r5,r0,0x8
    29c0:	04 00 06 35 	l.jal 4294 <_memset>
    29c4:	a9 94 00 00 	l.ori r12,r20,0x0
    29c8:	e5 98 a0 00 	l.sflts r24,r20
    29cc:	10 00 01 58 	l.bf 2f2c <__vfprintf_r+0x1a18>
    29d0:	84 62 f9 9c 	l.lwz r3,0xfffff99c(r2)
    29d4:	b8 8c 00 02 	l.slli r4,r12,0x2
    29d8:	84 62 f9 a0 	l.lwz r3,0xfffff9a0(r2)
    29dc:	e0 a4 18 00 	l.add r5,r4,r3
    29e0:	84 a5 00 00 	l.lwz r5,0x0(r5)
    29e4:	bc 25 00 00 	l.sfnei r5,0x0
    29e8:	0c 00 00 0e 	l.bnf 2a20 <__vfprintf_r+0x150c>
    29ec:	84 62 f9 9c 	l.lwz r3,0xfffff99c(r2)
    29f0:	9c 82 fe 4c 	l.addi r4,r2,0xfffffe4c
    29f4:	04 00 06 59 	l.jal 4358 <__wcrtomb_r>
    29f8:	9c c2 f9 a4 	l.addi r6,r2,0xfffff9a4
    29fc:	bc 2b ff ff 	l.sfnei r11,0xffffffff
    2a00:	0c 00 01 af 	l.bnf 30bc <__vfprintf_r+0x1ba8>
    2a04:	e1 6b a0 00 	l.add r11,r11,r20
    2a08:	e5 ab c0 00 	l.sfles r11,r24
    2a0c:	0c 00 00 05 	l.bnf 2a20 <__vfprintf_r+0x150c>
    2a10:	e4 2b c0 00 	l.sfne r11,r24
    2a14:	aa 8b 00 00 	l.ori r20,r11,0x0
    2a18:	13 ff ff ef 	l.bf 29d4 <__vfprintf_r+0x14c0>
    2a1c:	9d 8c 00 01 	l.addi r12,r12,0x1
    2a20:	bc 34 00 00 	l.sfnei r20,0x0
    2a24:	0f ff fb a8 	l.bnf 18c4 <__vfprintf_r+0x3b0>
    2a28:	85 02 f9 80 	l.lwz r8,0xfffff980(r2)
    2a2c:	84 62 f9 9c 	l.lwz r3,0xfffff99c(r2)
    2a30:	04 00 06 8b 	l.jal 445c <__malloc_r>
    2a34:	9c 94 00 01 	l.addi r4,r20,0x1
    2a38:	bc 2b 00 00 	l.sfnei r11,0x0
    2a3c:	0c 00 01 a0 	l.bnf 30bc <__vfprintf_r+0x1ba8>
    2a40:	d7 e2 59 78 	l.sw 0xfffff978(r2),r11
    2a44:	9c 62 f9 a4 	l.addi r3,r2,0xfffff9a4
    2a48:	9c 80 00 00 	l.addi r4,r0,0x0
    2a4c:	04 00 06 12 	l.jal 4294 <_memset>
    2a50:	9c a0 00 08 	l.addi r5,r0,0x8
    2a54:	84 62 f9 9c 	l.lwz r3,0xfffff99c(r2)
    2a58:	9c a2 f9 a0 	l.addi r5,r2,0xfffff9a0
    2a5c:	a8 d4 00 00 	l.ori r6,r20,0x0
    2a60:	84 82 f9 78 	l.lwz r4,0xfffff978(r2)
    2a64:	04 00 08 a3 	l.jal 4cf0 <__wcsrtombs_r>
    2a68:	9c e2 f9 a4 	l.addi r7,r2,0xfffff9a4
    2a6c:	e4 0b a0 00 	l.sfeq r11,r20
    2a70:	0c 00 01 93 	l.bnf 30bc <__vfprintf_r+0x1ba8>
    2a74:	9c a0 00 00 	l.addi r5,r0,0x0
    2a78:	84 82 f9 78 	l.lwz r4,0xfffff978(r2)
    2a7c:	e0 64 a0 00 	l.add r3,r4,r20
    2a80:	aa 44 00 00 	l.ori r18,r4,0x0
    2a84:	03 ff fb 8f 	l.j 18c0 <__vfprintf_r+0x3ac>
    2a88:	d8 03 28 00 	l.sb 0x0(r3),r5
    2a8c:	10 00 00 03 	l.bf 2a98 <__vfprintf_r+0x1584>
    2a90:	9c 80 00 00 	l.addi r4,r0,0x0
    2a94:	9c 80 00 01 	l.addi r4,r0,0x1
    2a98:	bc 36 00 47 	l.sfnei r22,0x47
    2a9c:	10 00 00 03 	l.bf 2aa8 <__vfprintf_r+0x1594>
    2aa0:	9c 60 00 00 	l.addi r3,r0,0x0
    2aa4:	9c 60 00 01 	l.addi r3,r0,0x1
    2aa8:	e0 64 18 04 	l.or r3,r4,r3
    2aac:	bc 03 00 00 	l.sfeqi r3,0x0
    2ab0:	13 ff fd 16 	l.bf 1f08 <__vfprintf_r+0x9f4>
    2ab4:	b8 7a 00 43 	l.srli r3,r26,0x3
    2ab8:	bc 38 00 00 	l.sfnei r24,0x0
    2abc:	13 ff fd 14 	l.bf 1f0c <__vfprintf_r+0x9f8>
    2ac0:	a4 63 00 01 	l.andi r3,r3,0x1
    2ac4:	03 ff fd 10 	l.j 1f04 <__vfprintf_r+0x9f0>
    2ac8:	9f 00 00 01 	l.addi r24,r0,0x1
    2acc:	a4 63 00 01 	l.andi r3,r3,0x1
    2ad0:	bc 03 00 00 	l.sfeqi r3,0x0
    2ad4:	10 00 00 41 	l.bf 2bd8 <__vfprintf_r+0x16c4>
    2ad8:	84 a2 f9 98 	l.lwz r5,0xfffff998(r2)
    2adc:	84 7e 00 00 	l.lwz r3,0x0(r30)
    2ae0:	84 82 f9 98 	l.lwz r4,0xfffff998(r2)
    2ae4:	9f de 00 04 	l.addi r30,r30,0x4
    2ae8:	03 ff fa d1 	l.j 162c <__vfprintf_r+0x118>
    2aec:	dc 03 20 00 	l.sh 0x0(r3),r4
    2af0:	a8 7c 00 00 	l.ori r3,r28,0x0
    2af4:	07 ff fa 72 	l.jal 14bc <___sprint>
    2af8:	9c 82 ff e8 	l.addi r4,r2,0xffffffe8
    2afc:	bc 0b 00 00 	l.sfeqi r11,0x0
    2b00:	0f ff fe 2f 	l.bnf 23bc <__vfprintf_r+0xea8>
    2b04:	9e 02 ff a8 	l.addi r16,r2,0xffffffa8
    2b08:	03 ff fd e0 	l.j 2288 <__vfprintf_r+0xd74>
    2b0c:	85 42 f9 b4 	l.lwz r10,0xfffff9b4(r2)
    2b10:	04 00 05 08 	l.jal 3f30 <__free_r>
    2b14:	a8 88 00 00 	l.ori r4,r8,0x0
    2b18:	03 ff fe 2e 	l.j 23d0 <__vfprintf_r+0xebc>
    2b1c:	94 7c 00 0c 	l.lhz r3,0xc(r28)
    2b20:	e0 83 28 00 	l.add r4,r3,r5
    2b24:	d4 10 90 00 	l.sw 0x0(r16),r18
    2b28:	84 62 ff ec 	l.lwz r3,0xffffffec(r2)
    2b2c:	d4 10 28 04 	l.sw 0x4(r16),r5
    2b30:	9c 63 00 01 	l.addi r3,r3,0x1
    2b34:	d7 e2 27 f0 	l.sw 0xfffffff0(r2),r4
    2b38:	9e 10 00 08 	l.addi r16,r16,0x8
    2b3c:	bd a3 00 07 	l.sflesi r3,0x7
    2b40:	0c 00 00 f3 	l.bnf 2f0c <__vfprintf_r+0x19f8>
    2b44:	d7 e2 1f ec 	l.sw 0xffffffec(r2),r3
    2b48:	84 62 ff f0 	l.lwz r3,0xfffffff0(r2)
    2b4c:	9d 00 00 01 	l.addi r8,r0,0x1
    2b50:	18 c0 00 00 	l.movhi r6,0x0
    2b54:	a8 c6 cd 71 	l.ori r6,r6,0xcd71
    2b58:	e0 83 40 00 	l.add r4,r3,r8
    2b5c:	d4 10 30 00 	l.sw 0x0(r16),r6
    2b60:	84 62 ff ec 	l.lwz r3,0xffffffec(r2)
    2b64:	e2 52 28 00 	l.add r18,r18,r5
    2b68:	e0 63 40 00 	l.add r3,r3,r8
    2b6c:	d4 10 40 04 	l.sw 0x4(r16),r8
    2b70:	d7 e2 27 f0 	l.sw 0xfffffff0(r2),r4
    2b74:	9e 10 00 08 	l.addi r16,r16,0x8
    2b78:	bd a3 00 07 	l.sflesi r3,0x7
    2b7c:	0c 00 00 dc 	l.bnf 2eec <__vfprintf_r+0x19d8>
    2b80:	d7 e2 1f ec 	l.sw 0xffffffec(r2),r3
    2b84:	84 62 f9 b4 	l.lwz r3,0xfffff9b4(r2)
    2b88:	e0 a3 28 02 	l.sub r5,r3,r5
    2b8c:	d4 10 90 00 	l.sw 0x0(r16),r18
    2b90:	84 62 ff f0 	l.lwz r3,0xfffffff0(r2)
    2b94:	e0 83 28 00 	l.add r4,r3,r5
    2b98:	d4 10 28 04 	l.sw 0x4(r16),r5
    2b9c:	84 62 ff ec 	l.lwz r3,0xffffffec(r2)
    2ba0:	03 ff fb f5 	l.j 1b74 <__vfprintf_r+0x660>
    2ba4:	9c 63 00 01 	l.addi r3,r3,0x1
    2ba8:	8c 7e 00 03 	l.lbz r3,0x3(r30)
    2bac:	d8 12 18 00 	l.sb 0x0(r18),r3
    2bb0:	03 ff fd 0a 	l.j 1fd8 <__vfprintf_r+0xac4>
    2bb4:	9f de 00 04 	l.addi r30,r30,0x4
    2bb8:	a8 7c 00 00 	l.ori r3,r28,0x0
    2bbc:	07 ff fa 40 	l.jal 14bc <___sprint>
    2bc0:	9c 82 ff e8 	l.addi r4,r2,0xffffffe8
    2bc4:	bc 0b 00 00 	l.sfeqi r11,0x0
    2bc8:	0f ff fd fd 	l.bnf 23bc <__vfprintf_r+0xea8>
    2bcc:	85 42 f9 b4 	l.lwz r10,0xfffff9b4(r2)
    2bd0:	03 ff fd c3 	l.j 22dc <__vfprintf_r+0xdc8>
    2bd4:	9e 02 ff a8 	l.addi r16,r2,0xffffffa8
    2bd8:	84 7e 00 00 	l.lwz r3,0x0(r30)
    2bdc:	9f de 00 04 	l.addi r30,r30,0x4
    2be0:	03 ff fa 93 	l.j 162c <__vfprintf_r+0x118>
    2be4:	d4 03 28 00 	l.sw 0x0(r3),r5
    2be8:	a8 7c 00 00 	l.ori r3,r28,0x0
    2bec:	07 ff fa 34 	l.jal 14bc <___sprint>
    2bf0:	9c 82 ff e8 	l.addi r4,r2,0xffffffe8
    2bf4:	bc 0b 00 00 	l.sfeqi r11,0x0
    2bf8:	0f ff fd f1 	l.bnf 23bc <__vfprintf_r+0xea8>
    2bfc:	84 a2 f9 b8 	l.lwz r5,0xfffff9b8(r2)
    2c00:	03 ff fe 4b 	l.j 252c <__vfprintf_r+0x1018>
    2c04:	9e 02 ff a8 	l.addi r16,r2,0xffffffa8
    2c08:	13 ff fb 2b 	l.bf 18b4 <__vfprintf_r+0x3a0>
    2c0c:	a8 72 00 00 	l.ori r3,r18,0x0
    2c10:	9c 80 00 00 	l.addi r4,r0,0x0
    2c14:	04 00 08 b5 	l.jal 4ee8 <_memchr>
    2c18:	a8 b8 00 00 	l.ori r5,r24,0x0
    2c1c:	bc 0b 00 00 	l.sfeqi r11,0x0
    2c20:	13 ff fb 28 	l.bf 18c0 <__vfprintf_r+0x3ac>
    2c24:	aa 98 00 00 	l.ori r20,r24,0x0
    2c28:	e2 8b 90 02 	l.sub r20,r11,r18
    2c2c:	e5 b4 c0 00 	l.sfles r20,r24
    2c30:	13 ff fb 25 	l.bf 18c4 <__vfprintf_r+0x3b0>
    2c34:	85 02 f9 80 	l.lwz r8,0xfffff980(r2)
    2c38:	03 ff fb 23 	l.j 18c4 <__vfprintf_r+0x3b0>
    2c3c:	aa 98 00 00 	l.ori r20,r24,0x0
    2c40:	a8 7c 00 00 	l.ori r3,r28,0x0
    2c44:	07 ff fa 1e 	l.jal 14bc <___sprint>
    2c48:	9c 82 ff e8 	l.addi r4,r2,0xffffffe8
    2c4c:	bc 0b 00 00 	l.sfeqi r11,0x0
    2c50:	0f ff fd db 	l.bnf 23bc <__vfprintf_r+0xea8>
    2c54:	84 a2 f9 b8 	l.lwz r5,0xfffff9b8(r2)
    2c58:	03 ff fe 49 	l.j 257c <__vfprintf_r+0x1068>
    2c5c:	9e 02 ff a8 	l.addi r16,r2,0xffffffa8
    2c60:	84 62 f9 88 	l.lwz r3,0xfffff988(r2)
    2c64:	84 82 f9 8c 	l.lwz r4,0xfffff98c(r2)
    2c68:	ab 5a 01 00 	l.ori r26,r26,0x100
    2c6c:	bc 36 00 66 	l.sfnei r22,0x66
    2c70:	d7 e2 19 70 	l.sw 0xfffff970(r2),r3
    2c74:	d7 e2 21 74 	l.sw 0xfffff974(r2),r4
    2c78:	10 00 00 e9 	l.bf 301c <__vfprintf_r+0x1b08>
    2c7c:	9c a2 ff fe 	l.addi r5,r2,0xfffffffe
    2c80:	9c e0 00 03 	l.addi r7,r0,0x3
    2c84:	84 82 f9 70 	l.lwz r4,0xfffff970(r2)
    2c88:	bd 64 00 00 	l.sfgesi r4,0x0
    2c8c:	10 00 00 e1 	l.bf 3010 <__vfprintf_r+0x1afc>
    2c90:	84 c2 f9 74 	l.lwz r6,0xfffff974(r2)
    2c94:	19 00 80 00 	l.movhi r8,0x8000
    2c98:	a9 08 00 00 	l.ori r8,r8,0x0
    2c9c:	e0 64 40 05 	l.xor r3,r4,r8
    2ca0:	9d 00 00 2d 	l.addi r8,r0,0x2d
    2ca4:	a8 86 00 00 	l.ori r4,r6,0x0
    2ca8:	d8 05 40 00 	l.sb 0x0(r5),r8
    2cac:	d7 e2 19 70 	l.sw 0xfffff970(r2),r3
    2cb0:	d7 e2 21 74 	l.sw 0xfffff974(r2),r4
    2cb4:	9c 62 f9 b0 	l.addi r3,r2,0xfffff9b0
    2cb8:	9c 82 f9 b8 	l.addi r4,r2,0xfffff9b8
    2cbc:	d4 01 18 04 	l.sw 0x4(r1),r3
    2cc0:	d4 01 20 00 	l.sw 0x0(r1),r4
    2cc4:	9c 62 f9 ac 	l.addi r3,r2,0xfffff9ac
    2cc8:	a9 0c 00 00 	l.ori r8,r12,0x0
    2ccc:	d4 01 18 08 	l.sw 0x8(r1),r3
    2cd0:	84 a2 f9 70 	l.lwz r5,0xfffff970(r2)
    2cd4:	84 c2 f9 74 	l.lwz r6,0xfffff974(r2)
    2cd8:	04 00 09 60 	l.jal 5258 <__dtoa_r>
    2cdc:	84 62 f9 9c 	l.lwz r3,0xfffff99c(r2)
    2ce0:	aa 4b 00 00 	l.ori r18,r11,0x0
    2ce4:	bc 16 00 67 	l.sfeqi r22,0x67
    2ce8:	10 00 00 03 	l.bf 2cf4 <__vfprintf_r+0x17e0>
    2cec:	9c 80 00 00 	l.addi r4,r0,0x0
    2cf0:	9c 80 00 01 	l.addi r4,r0,0x1
    2cf4:	bc 16 00 47 	l.sfeqi r22,0x47
    2cf8:	10 00 00 03 	l.bf 2d04 <__vfprintf_r+0x17f0>
    2cfc:	9c 60 00 00 	l.addi r3,r0,0x0
    2d00:	9c 60 00 01 	l.addi r3,r0,0x1
    2d04:	e0 64 18 03 	l.and r3,r4,r3
    2d08:	bc 23 00 00 	l.sfnei r3,0x0
    2d0c:	10 00 00 07 	l.bf 2d28 <__vfprintf_r+0x1814>
    2d10:	bc 36 00 66 	l.sfnei r22,0x66
    2d14:	a4 7a 00 01 	l.andi r3,r26,0x1
    2d18:	bc 23 00 00 	l.sfnei r3,0x0
    2d1c:	0c 00 00 29 	l.bnf 2dc0 <__vfprintf_r+0x18ac>
    2d20:	84 62 f9 ac 	l.lwz r3,0xfffff9ac(r2)
    2d24:	bc 36 00 66 	l.sfnei r22,0x66
    2d28:	10 00 00 cc 	l.bf 3058 <__vfprintf_r+0x1b44>
    2d2c:	e1 52 60 00 	l.add r10,r18,r12
    2d30:	90 72 00 00 	l.lbs r3,0x0(r18)
    2d34:	bc 23 00 30 	l.sfnei r3,0x30
    2d38:	10 00 00 e5 	l.bf 30cc <__vfprintf_r+0x1bb8>
    2d3c:	15 00 00 00 	l.nop 0x0
    2d40:	1a 80 00 00 	l.movhi r20,0x0
    2d44:	aa 94 cb bc 	l.ori r20,r20,0xcbbc
    2d48:	84 62 f9 70 	l.lwz r3,0xfffff970(r2)
    2d4c:	84 82 f9 74 	l.lwz r4,0xfffff974(r2)
    2d50:	84 b4 00 00 	l.lwz r5,0x0(r20)
    2d54:	84 d4 00 04 	l.lwz r6,0x4(r20)
    2d58:	04 00 1f db 	l.jal acc4 <___nedf2>
    2d5c:	15 00 00 00 	l.nop 0x0
    2d60:	bc 2b 00 00 	l.sfnei r11,0x0
    2d64:	0c 00 00 05 	l.bnf 2d78 <__vfprintf_r+0x1864>
    2d68:	85 02 f9 b8 	l.lwz r8,0xfffff9b8(r2)
    2d6c:	9c 60 00 01 	l.addi r3,r0,0x1
    2d70:	e1 03 60 02 	l.sub r8,r3,r12
    2d74:	d7 e2 41 b8 	l.sw 0xfffff9b8(r2),r8
    2d78:	e1 4a 40 00 	l.add r10,r10,r8
    2d7c:	84 62 f9 70 	l.lwz r3,0xfffff970(r2)
    2d80:	84 82 f9 74 	l.lwz r4,0xfffff974(r2)
    2d84:	84 b4 00 00 	l.lwz r5,0x0(r20)
    2d88:	84 d4 00 04 	l.lwz r6,0x4(r20)
    2d8c:	04 00 1f ab 	l.jal ac38 <___eqdf2>
    2d90:	15 00 00 00 	l.nop 0x0
    2d94:	bc 0b 00 00 	l.sfeqi r11,0x0
    2d98:	0c 00 00 04 	l.bnf 2da8 <__vfprintf_r+0x1894>
    2d9c:	84 62 f9 ac 	l.lwz r3,0xfffff9ac(r2)
    2da0:	a8 6a 00 00 	l.ori r3,r10,0x0
    2da4:	d7 e2 19 ac 	l.sw 0xfffff9ac(r2),r3
    2da8:	e4 63 50 00 	l.sfgeu r3,r10
    2dac:	10 00 00 05 	l.bf 2dc0 <__vfprintf_r+0x18ac>
    2db0:	9c a0 00 30 	l.addi r5,r0,0x30
    2db4:	d8 03 28 00 	l.sb 0x0(r3),r5
    2db8:	03 ff ff fb 	l.j 2da4 <__vfprintf_r+0x1890>
    2dbc:	9c 63 00 01 	l.addi r3,r3,0x1
    2dc0:	e0 63 90 02 	l.sub r3,r3,r18
    2dc4:	9c 80 00 00 	l.addi r4,r0,0x0
    2dc8:	bc 36 00 67 	l.sfnei r22,0x67
    2dcc:	10 00 00 03 	l.bf 2dd8 <__vfprintf_r+0x18c4>
    2dd0:	d7 e2 19 b4 	l.sw 0xfffff9b4(r2),r3
    2dd4:	9c 80 00 01 	l.addi r4,r0,0x1
    2dd8:	bc 36 00 47 	l.sfnei r22,0x47
    2ddc:	10 00 00 03 	l.bf 2de8 <__vfprintf_r+0x18d4>
    2de0:	9c 60 00 00 	l.addi r3,r0,0x0
    2de4:	9c 60 00 01 	l.addi r3,r0,0x1
    2de8:	e0 64 18 04 	l.or r3,r4,r3
    2dec:	bc 03 00 00 	l.sfeqi r3,0x0
    2df0:	10 00 00 0c 	l.bf 2e20 <__vfprintf_r+0x190c>
    2df4:	84 a2 f9 b8 	l.lwz r5,0xfffff9b8(r2)
    2df8:	bd a5 ff fc 	l.sflesi r5,0xfffffffc
    2dfc:	10 00 00 05 	l.bf 2e10 <__vfprintf_r+0x18fc>
    2e00:	bc 36 00 67 	l.sfnei r22,0x67
    2e04:	e5 45 c0 00 	l.sfgts r5,r24
    2e08:	0c 00 00 98 	l.bnf 3068 <__vfprintf_r+0x1b54>
    2e0c:	bc 36 00 67 	l.sfnei r22,0x67
    2e10:	10 00 00 03 	l.bf 2e1c <__vfprintf_r+0x1908>
    2e14:	9c 60 00 45 	l.addi r3,r0,0x45
    2e18:	9c 60 00 65 	l.addi r3,r0,0x65
    2e1c:	aa c3 00 00 	l.ori r22,r3,0x0
    2e20:	bd 56 00 65 	l.sfgtsi r22,0x65
    2e24:	10 00 00 66 	l.bf 2fbc <__vfprintf_r+0x1aa8>
    2e28:	bc 36 00 66 	l.sfnei r22,0x66
    2e2c:	9c a5 ff ff 	l.addi r5,r5,0xffffffff
    2e30:	db e2 b7 f4 	l.sb 0xfffffff4(r2),r22
    2e34:	a9 45 00 00 	l.ori r10,r5,0x0
    2e38:	9e 82 ff f5 	l.addi r20,r2,0xfffffff5
    2e3c:	bd 65 00 00 	l.sfgesi r5,0x0
    2e40:	10 00 00 95 	l.bf 3094 <__vfprintf_r+0x1b80>
    2e44:	d7 e2 29 b8 	l.sw 0xfffff9b8(r2),r5
    2e48:	9c c0 00 2d 	l.addi r6,r0,0x2d
    2e4c:	e1 40 28 02 	l.sub r10,r0,r5
    2e50:	d8 14 30 00 	l.sb 0x0(r20),r6
    2e54:	9f 02 f9 ec 	l.addi r24,r2,0xfffff9ec
    2e58:	9e 82 ff f6 	l.addi r20,r2,0xfffffff6
    2e5c:	bd aa 00 09 	l.sflesi r10,0x9
    2e60:	10 00 00 3d 	l.bf 2f54 <__vfprintf_r+0x1a40>
    2e64:	a9 98 00 00 	l.ori r12,r24,0x0
    2e68:	a8 6a 00 00 	l.ori r3,r10,0x0
    2e6c:	9c 80 00 0a 	l.addi r4,r0,0xa
    2e70:	04 00 21 84 	l.jal b480 <___modsi3>
    2e74:	9d 8c ff ff 	l.addi r12,r12,0xffffffff
    2e78:	9d 6b 00 30 	l.addi r11,r11,0x30
    2e7c:	a8 6a 00 00 	l.ori r3,r10,0x0
    2e80:	d8 0c 58 00 	l.sb 0x0(r12),r11
    2e84:	04 00 21 95 	l.jal b4d8 <___divsi3>
    2e88:	9c 80 00 0a 	l.addi r4,r0,0xa
    2e8c:	bd ab 00 09 	l.sflesi r11,0x9
    2e90:	0f ff ff f6 	l.bnf 2e68 <__vfprintf_r+0x1954>
    2e94:	a9 4b 00 00 	l.ori r10,r11,0x0
    2e98:	9d 8c ff ff 	l.addi r12,r12,0xffffffff
    2e9c:	9c 6b 00 30 	l.addi r3,r11,0x30
    2ea0:	e4 b8 60 00 	l.sfleu r24,r12
    2ea4:	d8 0c 18 00 	l.sb 0x0(r12),r3
    2ea8:	10 00 00 32 	l.bf 2f70 <__vfprintf_r+0x1a5c>
    2eac:	9c a2 ff f4 	l.addi r5,r2,0xfffffff4
    2eb0:	8c 6c 00 00 	l.lbz r3,0x0(r12)
    2eb4:	9d 8c 00 01 	l.addi r12,r12,0x1
    2eb8:	d8 14 18 00 	l.sb 0x0(r20),r3
    2ebc:	e4 b8 60 00 	l.sfleu r24,r12
    2ec0:	03 ff ff fa 	l.j 2ea8 <__vfprintf_r+0x1994>
    2ec4:	9e 94 00 01 	l.addi r20,r20,0x1
    2ec8:	a8 7c 00 00 	l.ori r3,r28,0x0
    2ecc:	07 ff f9 7c 	l.jal 14bc <___sprint>
    2ed0:	9c 82 ff e8 	l.addi r4,r2,0xffffffe8
    2ed4:	bc 0b 00 00 	l.sfeqi r11,0x0
    2ed8:	0f ff fd 39 	l.bnf 23bc <__vfprintf_r+0xea8>
    2edc:	84 a2 f9 b8 	l.lwz r5,0xfffff9b8(r2)
    2ee0:	9e 02 ff a8 	l.addi r16,r2,0xffffffa8
    2ee4:	03 ff fe 38 	l.j 27c4 <__vfprintf_r+0x12b0>
    2ee8:	85 42 f9 b4 	l.lwz r10,0xfffff9b4(r2)
    2eec:	a8 7c 00 00 	l.ori r3,r28,0x0
    2ef0:	07 ff f9 73 	l.jal 14bc <___sprint>
    2ef4:	9c 82 ff e8 	l.addi r4,r2,0xffffffe8
    2ef8:	bc 0b 00 00 	l.sfeqi r11,0x0
    2efc:	0f ff fd 30 	l.bnf 23bc <__vfprintf_r+0xea8>
    2f00:	84 a2 f9 b8 	l.lwz r5,0xfffff9b8(r2)
    2f04:	03 ff ff 20 	l.j 2b84 <__vfprintf_r+0x1670>
    2f08:	9e 02 ff a8 	l.addi r16,r2,0xffffffa8
    2f0c:	a8 7c 00 00 	l.ori r3,r28,0x0
    2f10:	07 ff f9 6b 	l.jal 14bc <___sprint>
    2f14:	9c 82 ff e8 	l.addi r4,r2,0xffffffe8
    2f18:	bc 0b 00 00 	l.sfeqi r11,0x0
    2f1c:	0f ff fd 28 	l.bnf 23bc <__vfprintf_r+0xea8>
    2f20:	84 a2 f9 b8 	l.lwz r5,0xfffff9b8(r2)
    2f24:	03 ff ff 09 	l.j 2b48 <__vfprintf_r+0x1634>
    2f28:	9e 02 ff a8 	l.addi r16,r2,0xffffffa8
    2f2c:	a8 94 00 00 	l.ori r4,r20,0x0
    2f30:	a8 d4 00 00 	l.ori r6,r20,0x0
    2f34:	9c a2 f9 a0 	l.addi r5,r2,0xfffff9a0
    2f38:	04 00 07 6e 	l.jal 4cf0 <__wcsrtombs_r>
    2f3c:	9c e2 f9 a4 	l.addi r7,r2,0xfffff9a4
    2f40:	bc 2b ff ff 	l.sfnei r11,0xffffffff
    2f44:	0c 00 00 5e 	l.bnf 30bc <__vfprintf_r+0x1ba8>
    2f48:	aa 8b 00 00 	l.ori r20,r11,0x0
    2f4c:	03 ff fe b5 	l.j 2a20 <__vfprintf_r+0x150c>
    2f50:	d7 e2 91 a0 	l.sw 0xfffff9a0(r2),r18
    2f54:	9c 60 00 30 	l.addi r3,r0,0x30
    2f58:	d8 14 18 00 	l.sb 0x0(r20),r3
    2f5c:	9e 94 00 01 	l.addi r20,r20,0x1
    2f60:	9c 6a 00 30 	l.addi r3,r10,0x30
    2f64:	d8 14 18 00 	l.sb 0x0(r20),r3
    2f68:	9e 94 00 01 	l.addi r20,r20,0x1
    2f6c:	9c a2 ff f4 	l.addi r5,r2,0xfffffff4
    2f70:	84 82 f9 b4 	l.lwz r4,0xfffff9b4(r2)
    2f74:	e0 b4 28 02 	l.sub r5,r20,r5
    2f78:	bd 44 00 01 	l.sfgtsi r4,0x1
    2f7c:	d7 e2 29 84 	l.sw 0xfffff984(r2),r5
    2f80:	10 00 00 0d 	l.bf 2fb4 <__vfprintf_r+0x1aa0>
    2f84:	e2 85 20 00 	l.add r20,r5,r4
    2f88:	a4 7a 00 01 	l.andi r3,r26,0x1
    2f8c:	bc 23 00 00 	l.sfnei r3,0x0
    2f90:	10 00 00 09 	l.bf 2fb4 <__vfprintf_r+0x1aa0>
    2f94:	15 00 00 00 	l.nop 0x0
    2f98:	90 62 ff fe 	l.lbs r3,0xfffffffe(r2)
    2f9c:	bc 03 00 00 	l.sfeqi r3,0x0
    2fa0:	13 ff fa 49 	l.bf 18c4 <__vfprintf_r+0x3b0>
    2fa4:	85 02 f9 80 	l.lwz r8,0xfffff980(r2)
    2fa8:	9c c0 00 2d 	l.addi r6,r0,0x2d
    2fac:	03 ff fa 45 	l.j 18c0 <__vfprintf_r+0x3ac>
    2fb0:	db e2 37 ff 	l.sb 0xffffffff(r2),r6
    2fb4:	03 ff ff f9 	l.j 2f98 <__vfprintf_r+0x1a84>
    2fb8:	9e 94 00 01 	l.addi r20,r20,0x1
    2fbc:	10 00 00 2d 	l.bf 3070 <__vfprintf_r+0x1b5c>
    2fc0:	84 82 f9 b4 	l.lwz r4,0xfffff9b4(r2)
    2fc4:	bd a5 00 00 	l.sflesi r5,0x0
    2fc8:	10 00 00 51 	l.bf 310c <__vfprintf_r+0x1bf8>
    2fcc:	bc 38 00 00 	l.sfnei r24,0x0
    2fd0:	10 00 00 06 	l.bf 2fe8 <__vfprintf_r+0x1ad4>
    2fd4:	aa 85 00 00 	l.ori r20,r5,0x0
    2fd8:	a4 7a 00 01 	l.andi r3,r26,0x1
    2fdc:	bc 23 00 00 	l.sfnei r3,0x0
    2fe0:	0f ff ff ef 	l.bnf 2f9c <__vfprintf_r+0x1a88>
    2fe4:	90 62 ff fe 	l.lbs r3,0xfffffffe(r2)
    2fe8:	e0 98 28 00 	l.add r4,r24,r5
    2fec:	03 ff ff eb 	l.j 2f98 <__vfprintf_r+0x1a84>
    2ff0:	9e 84 00 01 	l.addi r20,r4,0x1
    2ff4:	04 00 0e 9c 	l.jal 6a64 <_fflush>
    2ff8:	a8 6c 00 00 	l.ori r3,r12,0x0
    2ffc:	bc 0b 00 00 	l.sfeqi r11,0x0
    3000:	13 ff f9 f5 	l.bf 17d4 <__vfprintf_r+0x2c0>
    3004:	94 62 fd f8 	l.lhz r3,0xfffffdf8(r2)
    3008:	03 ff f9 f3 	l.j 17d4 <__vfprintf_r+0x2c0>
    300c:	9d 40 ff ff 	l.addi r10,r0,0xffffffff
    3010:	9c 60 00 00 	l.addi r3,r0,0x0
    3014:	03 ff ff 28 	l.j 2cb4 <__vfprintf_r+0x17a0>
    3018:	d8 05 18 00 	l.sb 0x0(r5),r3
    301c:	bc 36 00 65 	l.sfnei r22,0x65
    3020:	10 00 00 03 	l.bf 302c <__vfprintf_r+0x1b18>
    3024:	9c 80 00 00 	l.addi r4,r0,0x0
    3028:	9c 80 00 01 	l.addi r4,r0,0x1
    302c:	bc 36 00 45 	l.sfnei r22,0x45
    3030:	10 00 00 03 	l.bf 303c <__vfprintf_r+0x1b28>
    3034:	9c 60 00 00 	l.addi r3,r0,0x0
    3038:	9c 60 00 01 	l.addi r3,r0,0x1
    303c:	e0 64 18 04 	l.or r3,r4,r3
    3040:	bc 03 00 00 	l.sfeqi r3,0x0
    3044:	10 00 00 03 	l.bf 3050 <__vfprintf_r+0x1b3c>
    3048:	15 00 00 00 	l.nop 0x0
    304c:	9d 98 00 01 	l.addi r12,r24,0x1
    3050:	03 ff ff 0d 	l.j 2c84 <__vfprintf_r+0x1770>
    3054:	9c e0 00 02 	l.addi r7,r0,0x2
    3058:	1a 80 00 00 	l.movhi r20,0x0
    305c:	aa 94 cb bc 	l.ori r20,r20,0xcbbc
    3060:	03 ff ff 47 	l.j 2d7c <__vfprintf_r+0x1868>
    3064:	15 00 00 00 	l.nop 0x0
    3068:	9e c0 00 67 	l.addi r22,r0,0x67
    306c:	84 82 f9 b4 	l.lwz r4,0xfffff9b4(r2)
    3070:	e5 85 20 00 	l.sflts r5,r4
    3074:	10 00 00 1a 	l.bf 30dc <__vfprintf_r+0x1bc8>
    3078:	bd 45 00 00 	l.sfgtsi r5,0x0
    307c:	a4 7a 00 01 	l.andi r3,r26,0x1
    3080:	bc 03 00 00 	l.sfeqi r3,0x0
    3084:	13 ff ff c5 	l.bf 2f98 <__vfprintf_r+0x1a84>
    3088:	aa 85 00 00 	l.ori r20,r5,0x0
    308c:	03 ff ff c3 	l.j 2f98 <__vfprintf_r+0x1a84>
    3090:	9e 85 00 01 	l.addi r20,r5,0x1
    3094:	9d 00 00 2b 	l.addi r8,r0,0x2b
    3098:	03 ff ff 6f 	l.j 2e54 <__vfprintf_r+0x1940>
    309c:	d8 14 40 00 	l.sb 0x0(r20),r8
    30a0:	84 62 ff f0 	l.lwz r3,0xfffffff0(r2)
    30a4:	bc 03 00 00 	l.sfeqi r3,0x0
    30a8:	0c 00 00 12 	l.bnf 30f0 <__vfprintf_r+0x1bdc>
    30ac:	a8 7c 00 00 	l.ori r3,r28,0x0
    30b0:	9c c0 00 00 	l.addi r6,r0,0x0
    30b4:	03 ff fc c2 	l.j 23bc <__vfprintf_r+0xea8>
    30b8:	d7 e2 37 ec 	l.sw 0xffffffec(r2),r6
    30bc:	94 7c 00 0c 	l.lhz r3,0xc(r28)
    30c0:	a8 63 00 40 	l.ori r3,r3,0x40
    30c4:	03 ff fc be 	l.j 23bc <__vfprintf_r+0xea8>
    30c8:	dc 1c 18 0c 	l.sh 0xc(r28),r3
    30cc:	1a 80 00 00 	l.movhi r20,0x0
    30d0:	aa 94 cb bc 	l.ori r20,r20,0xcbbc
    30d4:	03 ff ff 29 	l.j 2d78 <__vfprintf_r+0x1864>
    30d8:	85 02 f9 b8 	l.lwz r8,0xfffff9b8(r2)
    30dc:	13 ff ff c4 	l.bf 2fec <__vfprintf_r+0x1ad8>
    30e0:	15 00 00 00 	l.nop 0x0
    30e4:	e0 84 28 02 	l.sub r4,r4,r5
    30e8:	03 ff ff ac 	l.j 2f98 <__vfprintf_r+0x1a84>
    30ec:	9e 84 00 02 	l.addi r20,r4,0x2
    30f0:	07 ff f8 f3 	l.jal 14bc <___sprint>
    30f4:	9c 82 ff e8 	l.addi r4,r2,0xffffffe8
    30f8:	bc 0b 00 00 	l.sfeqi r11,0x0
    30fc:	13 ff ff ee 	l.bf 30b4 <__vfprintf_r+0x1ba0>
    3100:	9c c0 00 00 	l.addi r6,r0,0x0
    3104:	03 ff fc af 	l.j 23c0 <__vfprintf_r+0xeac>
    3108:	85 02 f9 78 	l.lwz r8,0xfffff978(r2)
    310c:	13 ff ff a3 	l.bf 2f98 <__vfprintf_r+0x1a84>
    3110:	9e 98 00 02 	l.addi r20,r24,0x2
    3114:	a4 7a 00 01 	l.andi r3,r26,0x1
    3118:	bc 23 00 00 	l.sfnei r3,0x0
    311c:	13 ff ff a0 	l.bf 2f9c <__vfprintf_r+0x1a88>
    3120:	90 62 ff fe 	l.lbs r3,0xfffffffe(r2)
    3124:	03 ff ff 9e 	l.j 2f9c <__vfprintf_r+0x1a88>
    3128:	9e 80 00 01 	l.addi r20,r0,0x1
    312c:	87 1e 00 00 	l.lwz r24,0x0(r30)
    3130:	bd 78 00 00 	l.sfgesi r24,0x0
    3134:	13 ff fb 40 	l.bf 1e34 <__vfprintf_r+0x920>
    3138:	9f de 00 04 	l.addi r30,r30,0x4
    313c:	8c 8e 00 00 	l.lbz r4,0x0(r14)
    3140:	03 ff f9 69 	l.j 16e4 <__vfprintf_r+0x1d0>
    3144:	9f 00 ff ff 	l.addi r24,r0,0xffffffff
    3148:	85 21 00 0c 	l.lwz r9,0xc(r1)
    314c:	84 41 00 10 	l.lwz r2,0x10(r1)
    3150:	85 41 00 14 	l.lwz r10,0x14(r1)
    3154:	85 81 00 18 	l.lwz r12,0x18(r1)
    3158:	85 c1 00 1c 	l.lwz r14,0x1c(r1)
    315c:	86 01 00 20 	l.lwz r16,0x20(r1)
    3160:	86 41 00 24 	l.lwz r18,0x24(r1)
    3164:	86 81 00 28 	l.lwz r20,0x28(r1)
    3168:	86 c1 00 2c 	l.lwz r22,0x2c(r1)
    316c:	87 01 00 30 	l.lwz r24,0x30(r1)
    3170:	87 41 00 34 	l.lwz r26,0x34(r1)
    3174:	87 81 00 38 	l.lwz r28,0x38(r1)
    3178:	87 c1 00 3c 	l.lwz r30,0x3c(r1)
    317c:	44 00 48 00 	l.jr r9
    3180:	9c 21 06 d0 	l.addi r1,r1,0x6d0

00003184 <_vfprintf>:
    3184:	9c 21 ff f8 	l.addi r1,r1,0xfffffff8
    3188:	d4 01 10 04 	l.sw 0x4(r1),r2
    318c:	9c 41 00 08 	l.addi r2,r1,0x8
    3190:	d4 01 48 00 	l.sw 0x0(r1),r9
    3194:	a9 03 00 00 	l.ori r8,r3,0x0
    3198:	a8 e4 00 00 	l.ori r7,r4,0x0
    319c:	18 60 00 00 	l.movhi r3,0x0
    31a0:	a8 63 f3 cc 	l.ori r3,r3,0xf3cc
    31a4:	a8 c5 00 00 	l.ori r6,r5,0x0
    31a8:	84 63 00 00 	l.lwz r3,0x0(r3)
    31ac:	a8 88 00 00 	l.ori r4,r8,0x0
    31b0:	07 ff f8 d9 	l.jal 1514 <__vfprintf_r>
    31b4:	a8 a7 00 00 	l.ori r5,r7,0x0
    31b8:	85 21 00 00 	l.lwz r9,0x0(r1)
    31bc:	84 41 00 04 	l.lwz r2,0x4(r1)
    31c0:	44 00 48 00 	l.jr r9
    31c4:	9c 21 00 08 	l.addi r1,r1,0x8

000031c8 <___sfvwrite>:
    31c8:	9c 21 ff d8 	l.addi r1,r1,0xffffffd8
    31cc:	d4 01 10 04 	l.sw 0x4(r1),r2
    31d0:	9c 41 00 28 	l.addi r2,r1,0x28
    31d4:	d4 01 48 00 	l.sw 0x0(r1),r9
    31d8:	d4 01 50 08 	l.sw 0x8(r1),r10
    31dc:	d4 01 60 0c 	l.sw 0xc(r1),r12
    31e0:	d4 01 70 10 	l.sw 0x10(r1),r14
    31e4:	d4 01 80 14 	l.sw 0x14(r1),r16
    31e8:	d4 01 90 18 	l.sw 0x18(r1),r18
    31ec:	d4 01 a0 1c 	l.sw 0x1c(r1),r20
    31f0:	d4 01 b0 20 	l.sw 0x20(r1),r22
    31f4:	d4 01 c0 24 	l.sw 0x24(r1),r24
    31f8:	85 44 00 08 	l.lwz r10,0x8(r4)
    31fc:	9e 40 00 00 	l.addi r18,r0,0x0
    3200:	aa 84 00 00 	l.ori r20,r4,0x0
    3204:	e4 2a 90 00 	l.sfne r10,r18
    3208:	10 00 00 04 	l.bf 3218 <___sfvwrite+0x50>
    320c:	aa 03 00 00 	l.ori r16,r3,0x0
    3210:	00 00 01 1d 	l.j 3684 <___sfvwrite+0x4bc>
    3214:	a8 72 00 00 	l.ori r3,r18,0x0
    3218:	94 83 00 0c 	l.lhz r4,0xc(r3)
    321c:	a4 a4 ff ff 	l.andi r5,r4,0xffff
    3220:	b8 a5 00 43 	l.srli r5,r5,0x3
    3224:	ac a5 00 01 	l.xori r5,r5,0x1
    3228:	a4 a5 00 01 	l.andi r5,r5,0x1
    322c:	bc 25 00 00 	l.sfnei r5,0x0
    3230:	10 00 00 06 	l.bf 3248 <___sfvwrite+0x80>
    3234:	15 00 00 00 	l.nop 0x0
    3238:	84 a3 00 10 	l.lwz r5,0x10(r3)
    323c:	bc 25 00 00 	l.sfnei r5,0x0
    3240:	10 00 00 09 	l.bf 3264 <___sfvwrite+0x9c>
    3244:	a4 a4 ff ff 	l.andi r5,r4,0xffff
    3248:	04 00 01 71 	l.jal 380c <___swsetup>
    324c:	15 00 00 00 	l.nop 0x0
    3250:	bc 0b 00 00 	l.sfeqi r11,0x0
    3254:	0c 00 01 0c 	l.bnf 3684 <___sfvwrite+0x4bc>
    3258:	9c 60 ff ff 	l.addi r3,r0,0xffffffff
    325c:	94 90 00 0c 	l.lhz r4,0xc(r16)
    3260:	a4 a4 ff ff 	l.andi r5,r4,0xffff
    3264:	9d 40 00 00 	l.addi r10,r0,0x0
    3268:	b8 65 00 41 	l.srli r3,r5,0x1
    326c:	a4 63 00 01 	l.andi r3,r3,0x1
    3270:	e4 03 50 00 	l.sfeq r3,r10
    3274:	10 00 00 1e 	l.bf 32ec <___sfvwrite+0x124>
    3278:	85 d4 00 00 	l.lwz r14,0x0(r20)
    327c:	bc 2a 00 00 	l.sfnei r10,0x0
    3280:	10 00 00 07 	l.bf 329c <___sfvwrite+0xd4>
    3284:	15 00 00 00 	l.nop 0x0
    3288:	85 4e 00 04 	l.lwz r10,0x4(r14)
    328c:	86 4e 00 00 	l.lwz r18,0x0(r14)
    3290:	bc 2a 00 00 	l.sfnei r10,0x0
    3294:	0f ff ff fd 	l.bnf 3288 <___sfvwrite+0xc0>
    3298:	9d ce 00 08 	l.addi r14,r14,0x8
    329c:	84 70 00 1c 	l.lwz r3,0x1c(r16)
    32a0:	bc aa 04 00 	l.sfleui r10,0x400
    32a4:	10 00 00 03 	l.bf 32b0 <___sfvwrite+0xe8>
    32a8:	a8 aa 00 00 	l.ori r5,r10,0x0
    32ac:	9c a0 04 00 	l.addi r5,r0,0x400
    32b0:	84 d0 00 24 	l.lwz r6,0x24(r16)
    32b4:	48 00 30 00 	l.jalr r6
    32b8:	a8 92 00 00 	l.ori r4,r18,0x0
    32bc:	bd 4b 00 00 	l.sfgtsi r11,0x0
    32c0:	0c 00 00 a3 	l.bnf 354c <___sfvwrite+0x384>
    32c4:	15 00 00 00 	l.nop 0x0
    32c8:	84 74 00 08 	l.lwz r3,0x8(r20)
    32cc:	e2 52 58 00 	l.add r18,r18,r11
    32d0:	e1 4a 58 02 	l.sub r10,r10,r11
    32d4:	e0 a3 58 02 	l.sub r5,r3,r11
    32d8:	bc 05 00 00 	l.sfeqi r5,0x0
    32dc:	0f ff ff e8 	l.bnf 327c <___sfvwrite+0xb4>
    32e0:	d4 14 28 08 	l.sw 0x8(r20),r5
    32e4:	00 00 00 e8 	l.j 3684 <___sfvwrite+0x4bc>
    32e8:	9c 60 00 00 	l.addi r3,r0,0x0
    32ec:	ac 65 00 01 	l.xori r3,r5,0x1
    32f0:	a4 63 00 01 	l.andi r3,r3,0x1
    32f4:	bc 03 00 00 	l.sfeqi r3,0x0
    32f8:	0c 00 00 74 	l.bnf 34c8 <___sfvwrite+0x300>
    32fc:	bc 2a 00 00 	l.sfnei r10,0x0
    3300:	ab 0a 00 00 	l.ori r24,r10,0x0
    3304:	10 00 00 3f 	l.bf 3400 <___sfvwrite+0x238>
    3308:	aa ca 00 00 	l.ori r22,r10,0x0
    330c:	85 4e 00 04 	l.lwz r10,0x4(r14)
    3310:	86 4e 00 00 	l.lwz r18,0x0(r14)
    3314:	bc 2a 00 00 	l.sfnei r10,0x0
    3318:	0f ff ff fd 	l.bnf 330c <___sfvwrite+0x144>
    331c:	9d ce 00 08 	l.addi r14,r14,0x8
    3320:	a8 72 00 00 	l.ori r3,r18,0x0
    3324:	9c 80 00 0a 	l.addi r4,r0,0xa
    3328:	04 00 06 f0 	l.jal 4ee8 <_memchr>
    332c:	a8 aa 00 00 	l.ori r5,r10,0x0
    3330:	bc 0b 00 00 	l.sfeqi r11,0x0
    3334:	10 00 00 04 	l.bf 3344 <___sfvwrite+0x17c>
    3338:	9e ca 00 01 	l.addi r22,r10,0x1
    333c:	e1 6b 90 02 	l.sub r11,r11,r18
    3340:	9e cb 00 01 	l.addi r22,r11,0x1
    3344:	9f 00 00 01 	l.addi r24,r0,0x1
    3348:	e4 b6 50 00 	l.sfleu r22,r10
    334c:	10 00 00 03 	l.bf 3358 <___sfvwrite+0x190>
    3350:	a8 d6 00 00 	l.ori r6,r22,0x0
    3354:	a8 ca 00 00 	l.ori r6,r10,0x0
    3358:	84 b0 00 08 	l.lwz r5,0x8(r16)
    335c:	9d 00 00 00 	l.addi r8,r0,0x0
    3360:	84 f0 00 14 	l.lwz r7,0x14(r16)
    3364:	84 70 00 00 	l.lwz r3,0x0(r16)
    3368:	84 90 00 10 	l.lwz r4,0x10(r16)
    336c:	e4 a3 20 00 	l.sfleu r3,r4
    3370:	10 00 00 03 	l.bf 337c <___sfvwrite+0x1b4>
    3374:	e1 85 38 00 	l.add r12,r5,r7
    3378:	9d 00 00 01 	l.addi r8,r0,0x1
    337c:	e5 a6 60 00 	l.sfles r6,r12
    3380:	10 00 00 03 	l.bf 338c <___sfvwrite+0x1c4>
    3384:	9c 80 00 00 	l.addi r4,r0,0x0
    3388:	9c 80 00 01 	l.addi r4,r0,0x1
    338c:	e0 88 20 03 	l.and r4,r8,r4
    3390:	bc 04 00 00 	l.sfeqi r4,0x0
    3394:	0c 00 00 9a 	l.bnf 35fc <___sfvwrite+0x434>
    3398:	a8 92 00 00 	l.ori r4,r18,0x0
    339c:	e5 47 30 00 	l.sfgts r7,r6
    33a0:	10 00 00 85 	l.bf 35b4 <___sfvwrite+0x3ec>
    33a4:	a9 86 00 00 	l.ori r12,r6,0x0
    33a8:	84 d0 00 24 	l.lwz r6,0x24(r16)
    33ac:	a8 a7 00 00 	l.ori r5,r7,0x0
    33b0:	a8 92 00 00 	l.ori r4,r18,0x0
    33b4:	48 00 30 00 	l.jalr r6
    33b8:	84 70 00 1c 	l.lwz r3,0x1c(r16)
    33bc:	a9 8b 00 00 	l.ori r12,r11,0x0
    33c0:	bd 4b 00 00 	l.sfgtsi r11,0x0
    33c4:	0c 00 00 62 	l.bnf 354c <___sfvwrite+0x384>
    33c8:	e2 d6 60 02 	l.sub r22,r22,r12
    33cc:	bc 36 00 00 	l.sfnei r22,0x0
    33d0:	0c 00 00 84 	l.bnf 35e0 <___sfvwrite+0x418>
    33d4:	15 00 00 00 	l.nop 0x0
    33d8:	84 74 00 08 	l.lwz r3,0x8(r20)
    33dc:	e2 52 60 00 	l.add r18,r18,r12
    33e0:	e1 4a 60 02 	l.sub r10,r10,r12
    33e4:	e0 a3 60 02 	l.sub r5,r3,r12
    33e8:	bc 05 00 00 	l.sfeqi r5,0x0
    33ec:	13 ff ff be 	l.bf 32e4 <___sfvwrite+0x11c>
    33f0:	d4 14 28 08 	l.sw 0x8(r20),r5
    33f4:	bc 2a 00 00 	l.sfnei r10,0x0
    33f8:	0f ff ff c5 	l.bnf 330c <___sfvwrite+0x144>
    33fc:	15 00 00 00 	l.nop 0x0
    3400:	bc 38 00 00 	l.sfnei r24,0x0
    3404:	13 ff ff d2 	l.bf 334c <___sfvwrite+0x184>
    3408:	e4 b6 50 00 	l.sfleu r22,r10
    340c:	a8 72 00 00 	l.ori r3,r18,0x0
    3410:	9c 80 00 0a 	l.addi r4,r0,0xa
    3414:	04 00 06 b5 	l.jal 4ee8 <_memchr>
    3418:	a8 aa 00 00 	l.ori r5,r10,0x0
    341c:	bc 0b 00 00 	l.sfeqi r11,0x0
    3420:	0f ff ff c7 	l.bnf 333c <___sfvwrite+0x174>
    3424:	9e ca 00 01 	l.addi r22,r10,0x1
    3428:	03 ff ff c8 	l.j 3348 <___sfvwrite+0x180>
    342c:	9f 00 00 01 	l.addi r24,r0,0x1
    3430:	a4 84 ff ff 	l.andi r4,r4,0xffff
    3434:	b8 64 00 49 	l.srli r3,r4,0x9
    3438:	a4 63 00 01 	l.andi r3,r3,0x1
    343c:	bc 03 00 00 	l.sfeqi r3,0x0
    3440:	10 00 00 29 	l.bf 34e4 <___sfvwrite+0x31c>
    3444:	85 90 00 08 	l.lwz r12,0x8(r16)
    3448:	e4 6c 50 00 	l.sfgeu r12,r10
    344c:	10 00 00 08 	l.bf 346c <___sfvwrite+0x2a4>
    3450:	e4 ac 50 00 	l.sfleu r12,r10
    3454:	b8 64 00 47 	l.srli r3,r4,0x7
    3458:	a4 63 00 01 	l.andi r3,r3,0x1
    345c:	bc 03 00 00 	l.sfeqi r3,0x0
    3460:	0c 00 00 70 	l.bnf 3620 <___sfvwrite+0x458>
    3464:	15 00 00 00 	l.nop 0x0
    3468:	e4 ac 50 00 	l.sfleu r12,r10
    346c:	10 00 00 03 	l.bf 3478 <___sfvwrite+0x2b0>
    3470:	15 00 00 00 	l.nop 0x0
    3474:	a9 8a 00 00 	l.ori r12,r10,0x0
    3478:	84 70 00 00 	l.lwz r3,0x0(r16)
    347c:	a8 ac 00 00 	l.ori r5,r12,0x0
    3480:	04 00 0d c7 	l.jal 6b9c <_memmove>
    3484:	a8 92 00 00 	l.ori r4,r18,0x0
    3488:	84 70 00 08 	l.lwz r3,0x8(r16)
    348c:	84 90 00 00 	l.lwz r4,0x0(r16)
    3490:	e0 63 60 02 	l.sub r3,r3,r12
    3494:	e0 a4 60 00 	l.add r5,r4,r12
    3498:	d4 10 18 08 	l.sw 0x8(r16),r3
    349c:	d4 10 28 00 	l.sw 0x0(r16),r5
    34a0:	a9 8a 00 00 	l.ori r12,r10,0x0
    34a4:	84 74 00 08 	l.lwz r3,0x8(r20)
    34a8:	e2 52 60 00 	l.add r18,r18,r12
    34ac:	e1 4a 60 02 	l.sub r10,r10,r12
    34b0:	e0 a3 60 02 	l.sub r5,r3,r12
    34b4:	bc 05 00 00 	l.sfeqi r5,0x0
    34b8:	13 ff ff 8b 	l.bf 32e4 <___sfvwrite+0x11c>
    34bc:	d4 14 28 08 	l.sw 0x8(r20),r5
    34c0:	94 90 00 0c 	l.lhz r4,0xc(r16)
    34c4:	bc 2a 00 00 	l.sfnei r10,0x0
    34c8:	13 ff ff da 	l.bf 3430 <___sfvwrite+0x268>
    34cc:	15 00 00 00 	l.nop 0x0
    34d0:	85 4e 00 04 	l.lwz r10,0x4(r14)
    34d4:	86 4e 00 00 	l.lwz r18,0x0(r14)
    34d8:	bc 2a 00 00 	l.sfnei r10,0x0
    34dc:	03 ff ff fb 	l.j 34c8 <___sfvwrite+0x300>
    34e0:	9d ce 00 08 	l.addi r14,r14,0x8
    34e4:	84 70 00 00 	l.lwz r3,0x0(r16)
    34e8:	84 90 00 10 	l.lwz r4,0x10(r16)
    34ec:	e4 a3 20 00 	l.sfleu r3,r4
    34f0:	10 00 00 03 	l.bf 34fc <___sfvwrite+0x334>
    34f4:	9c a0 00 00 	l.addi r5,r0,0x0
    34f8:	9c a0 00 01 	l.addi r5,r0,0x1
    34fc:	e4 6c 50 00 	l.sfgeu r12,r10
    3500:	10 00 00 03 	l.bf 350c <___sfvwrite+0x344>
    3504:	9c 80 00 00 	l.addi r4,r0,0x0
    3508:	9c 80 00 01 	l.addi r4,r0,0x1
    350c:	e0 85 20 03 	l.and r4,r5,r4
    3510:	bc 04 00 00 	l.sfeqi r4,0x0
    3514:	0c 00 00 1c 	l.bnf 3584 <___sfvwrite+0x3bc>
    3518:	a8 92 00 00 	l.ori r4,r18,0x0
    351c:	85 90 00 14 	l.lwz r12,0x14(r16)
    3520:	e4 4c 50 00 	l.sfgtu r12,r10
    3524:	10 00 00 0f 	l.bf 3560 <___sfvwrite+0x398>
    3528:	a8 aa 00 00 	l.ori r5,r10,0x0
    352c:	84 d0 00 24 	l.lwz r6,0x24(r16)
    3530:	a8 ac 00 00 	l.ori r5,r12,0x0
    3534:	a8 92 00 00 	l.ori r4,r18,0x0
    3538:	48 00 30 00 	l.jalr r6
    353c:	84 70 00 1c 	l.lwz r3,0x1c(r16)
    3540:	bd 4b 00 00 	l.sfgtsi r11,0x0
    3544:	13 ff ff d8 	l.bf 34a4 <___sfvwrite+0x2dc>
    3548:	a9 8b 00 00 	l.ori r12,r11,0x0
    354c:	94 90 00 0c 	l.lhz r4,0xc(r16)
    3550:	9c 60 ff ff 	l.addi r3,r0,0xffffffff
    3554:	a8 84 00 40 	l.ori r4,r4,0x40
    3558:	00 00 00 4b 	l.j 3684 <___sfvwrite+0x4bc>
    355c:	dc 10 20 0c 	l.sh 0xc(r16),r4
    3560:	04 00 0d 8f 	l.jal 6b9c <_memmove>
    3564:	a9 8a 00 00 	l.ori r12,r10,0x0
    3568:	84 70 00 08 	l.lwz r3,0x8(r16)
    356c:	84 90 00 00 	l.lwz r4,0x0(r16)
    3570:	e0 63 50 02 	l.sub r3,r3,r10
    3574:	e0 84 50 00 	l.add r4,r4,r10
    3578:	d4 10 18 08 	l.sw 0x8(r16),r3
    357c:	03 ff ff ca 	l.j 34a4 <___sfvwrite+0x2dc>
    3580:	d4 10 20 00 	l.sw 0x0(r16),r4
    3584:	04 00 0d 86 	l.jal 6b9c <_memmove>
    3588:	a8 ac 00 00 	l.ori r5,r12,0x0
    358c:	84 90 00 00 	l.lwz r4,0x0(r16)
    3590:	a8 70 00 00 	l.ori r3,r16,0x0
    3594:	e0 84 60 00 	l.add r4,r4,r12
    3598:	04 00 0d 33 	l.jal 6a64 <_fflush>
    359c:	d4 10 20 00 	l.sw 0x0(r16),r4
    35a0:	bc 0b 00 00 	l.sfeqi r11,0x0
    35a4:	13 ff ff c0 	l.bf 34a4 <___sfvwrite+0x2dc>
    35a8:	15 00 00 00 	l.nop 0x0
    35ac:	03 ff ff e9 	l.j 3550 <___sfvwrite+0x388>
    35b0:	94 90 00 0c 	l.lhz r4,0xc(r16)
    35b4:	a8 a6 00 00 	l.ori r5,r6,0x0
    35b8:	04 00 0d 79 	l.jal 6b9c <_memmove>
    35bc:	e2 d6 60 02 	l.sub r22,r22,r12
    35c0:	84 70 00 08 	l.lwz r3,0x8(r16)
    35c4:	bc 36 00 00 	l.sfnei r22,0x0
    35c8:	84 90 00 00 	l.lwz r4,0x0(r16)
    35cc:	e0 63 60 02 	l.sub r3,r3,r12
    35d0:	e0 84 60 00 	l.add r4,r4,r12
    35d4:	d4 10 18 08 	l.sw 0x8(r16),r3
    35d8:	13 ff ff 80 	l.bf 33d8 <___sfvwrite+0x210>
    35dc:	d4 10 20 00 	l.sw 0x0(r16),r4
    35e0:	04 00 0d 21 	l.jal 6a64 <_fflush>
    35e4:	a8 70 00 00 	l.ori r3,r16,0x0
    35e8:	bc 0b 00 00 	l.sfeqi r11,0x0
    35ec:	0f ff ff d8 	l.bnf 354c <___sfvwrite+0x384>
    35f0:	9f 00 00 00 	l.addi r24,r0,0x0
    35f4:	03 ff ff 7a 	l.j 33dc <___sfvwrite+0x214>
    35f8:	84 74 00 08 	l.lwz r3,0x8(r20)
    35fc:	04 00 0d 68 	l.jal 6b9c <_memmove>
    3600:	a8 ac 00 00 	l.ori r5,r12,0x0
    3604:	84 90 00 00 	l.lwz r4,0x0(r16)
    3608:	a8 70 00 00 	l.ori r3,r16,0x0
    360c:	e0 84 60 00 	l.add r4,r4,r12
    3610:	04 00 0d 15 	l.jal 6a64 <_fflush>
    3614:	d4 10 20 00 	l.sw 0x0(r16),r4
    3618:	03 ff ff 6b 	l.j 33c4 <___sfvwrite+0x1fc>
    361c:	bc 0b 00 00 	l.sfeqi r11,0x0
    3620:	84 b0 00 10 	l.lwz r5,0x10(r16)
    3624:	1b 00 00 00 	l.movhi r24,0x0
    3628:	ab 18 f3 cc 	l.ori r24,r24,0xf3cc
    362c:	84 70 00 00 	l.lwz r3,0x0(r16)
    3630:	a8 85 00 00 	l.ori r4,r5,0x0
    3634:	e2 c3 28 02 	l.sub r22,r3,r5
    3638:	e1 96 50 00 	l.add r12,r22,r10
    363c:	84 78 00 00 	l.lwz r3,0x0(r24)
    3640:	04 00 0d a9 	l.jal 6ce4 <__realloc_r>
    3644:	a8 ac 00 00 	l.ori r5,r12,0x0
    3648:	bc 2b 00 00 	l.sfnei r11,0x0
    364c:	0c 00 00 09 	l.bnf 3670 <___sfvwrite+0x4a8>
    3650:	15 00 00 00 	l.nop 0x0
    3654:	e0 8b b0 00 	l.add r4,r11,r22
    3658:	d4 10 60 14 	l.sw 0x14(r16),r12
    365c:	d4 10 20 00 	l.sw 0x0(r16),r4
    3660:	d4 10 58 10 	l.sw 0x10(r16),r11
    3664:	d4 10 50 08 	l.sw 0x8(r16),r10
    3668:	03 ff ff 80 	l.j 3468 <___sfvwrite+0x2a0>
    366c:	a9 8a 00 00 	l.ori r12,r10,0x0
    3670:	84 78 00 00 	l.lwz r3,0x0(r24)
    3674:	04 00 02 2f 	l.jal 3f30 <__free_r>
    3678:	84 90 00 10 	l.lwz r4,0x10(r16)
    367c:	03 ff ff b5 	l.j 3550 <___sfvwrite+0x388>
    3680:	94 90 00 0c 	l.lhz r4,0xc(r16)
    3684:	a9 63 00 00 	l.ori r11,r3,0x0
    3688:	85 21 00 00 	l.lwz r9,0x0(r1)
    368c:	84 41 00 04 	l.lwz r2,0x4(r1)
    3690:	85 41 00 08 	l.lwz r10,0x8(r1)
    3694:	85 81 00 0c 	l.lwz r12,0xc(r1)
    3698:	85 c1 00 10 	l.lwz r14,0x10(r1)
    369c:	86 01 00 14 	l.lwz r16,0x14(r1)
    36a0:	86 41 00 18 	l.lwz r18,0x18(r1)
    36a4:	86 81 00 1c 	l.lwz r20,0x1c(r1)
    36a8:	86 c1 00 20 	l.lwz r22,0x20(r1)
    36ac:	87 01 00 24 	l.lwz r24,0x24(r1)
    36b0:	44 00 48 00 	l.jr r9
    36b4:	9c 21 00 28 	l.addi r1,r1,0x28

000036b8 <__setlocale_r>:
    36b8:	9c 21 ff ec 	l.addi r1,r1,0xffffffec
    36bc:	d4 01 10 04 	l.sw 0x4(r1),r2
    36c0:	9c 41 00 14 	l.addi r2,r1,0x14
    36c4:	d4 01 48 00 	l.sw 0x0(r1),r9
    36c8:	d4 01 50 08 	l.sw 0x8(r1),r10
    36cc:	d4 01 60 0c 	l.sw 0xc(r1),r12
    36d0:	d4 01 70 10 	l.sw 0x10(r1),r14
    36d4:	a9 83 00 00 	l.ori r12,r3,0x0
    36d8:	a9 c4 00 00 	l.ori r14,r4,0x0
    36dc:	a9 45 00 00 	l.ori r10,r5,0x0
    36e0:	18 80 00 00 	l.movhi r4,0x0
    36e4:	a8 84 cd 8c 	l.ori r4,r4,0xcd8c
    36e8:	bc 05 00 00 	l.sfeqi r5,0x0
    36ec:	0c 00 00 06 	l.bnf 3704 <__setlocale_r+0x4c>
    36f0:	a8 65 00 00 	l.ori r3,r5,0x0
    36f4:	19 60 00 00 	l.movhi r11,0x0
    36f8:	a9 6b cd 8c 	l.ori r11,r11,0xcd8c
    36fc:	00 00 00 11 	l.j 3740 <__setlocale_r+0x88>
    3700:	15 00 00 00 	l.nop 0x0
    3704:	04 00 0e ea 	l.jal 72ac <_strcmp>
    3708:	15 00 00 00 	l.nop 0x0
    370c:	18 80 00 00 	l.movhi r4,0x0
    3710:	a8 84 cd 80 	l.ori r4,r4,0xcd80
    3714:	bc 0b 00 00 	l.sfeqi r11,0x0
    3718:	0c 00 00 05 	l.bnf 372c <__setlocale_r+0x74>
    371c:	a8 6a 00 00 	l.ori r3,r10,0x0
    3720:	d4 0c 50 34 	l.sw 0x34(r12),r10
    3724:	03 ff ff f4 	l.j 36f4 <__setlocale_r+0x3c>
    3728:	d4 0c 70 30 	l.sw 0x30(r12),r14
    372c:	04 00 0e e0 	l.jal 72ac <_strcmp>
    3730:	15 00 00 00 	l.nop 0x0
    3734:	bc 0b 00 00 	l.sfeqi r11,0x0
    3738:	13 ff ff fa 	l.bf 3720 <__setlocale_r+0x68>
    373c:	9d 60 00 00 	l.addi r11,r0,0x0
    3740:	85 21 00 00 	l.lwz r9,0x0(r1)
    3744:	84 41 00 04 	l.lwz r2,0x4(r1)
    3748:	85 41 00 08 	l.lwz r10,0x8(r1)
    374c:	85 81 00 0c 	l.lwz r12,0xc(r1)
    3750:	85 c1 00 10 	l.lwz r14,0x10(r1)
    3754:	44 00 48 00 	l.jr r9
    3758:	9c 21 00 14 	l.addi r1,r1,0x14

0000375c <___locale_charset>:
    375c:	9c 21 ff fc 	l.addi r1,r1,0xfffffffc
    3760:	d4 01 10 00 	l.sw 0x0(r1),r2
    3764:	9c 41 00 04 	l.addi r2,r1,0x4
    3768:	19 60 00 00 	l.movhi r11,0x0
    376c:	a9 6b f3 ec 	l.ori r11,r11,0xf3ec
    3770:	85 6b 00 00 	l.lwz r11,0x0(r11)
    3774:	84 41 00 00 	l.lwz r2,0x0(r1)
    3778:	44 00 48 00 	l.jr r9
    377c:	9c 21 00 04 	l.addi r1,r1,0x4

00003780 <__localeconv_r>:
    3780:	9c 21 ff fc 	l.addi r1,r1,0xfffffffc
    3784:	d4 01 10 00 	l.sw 0x0(r1),r2
    3788:	9c 41 00 04 	l.addi r2,r1,0x4
    378c:	19 60 00 00 	l.movhi r11,0x0
    3790:	a9 6b cd 90 	l.ori r11,r11,0xcd90
    3794:	84 41 00 00 	l.lwz r2,0x0(r1)
    3798:	44 00 48 00 	l.jr r9
    379c:	9c 21 00 04 	l.addi r1,r1,0x4

000037a0 <_setlocale>:
    37a0:	9c 21 ff f8 	l.addi r1,r1,0xfffffff8
    37a4:	d4 01 10 04 	l.sw 0x4(r1),r2
    37a8:	9c 41 00 08 	l.addi r2,r1,0x8
    37ac:	d4 01 48 00 	l.sw 0x0(r1),r9
    37b0:	a8 c3 00 00 	l.ori r6,r3,0x0
    37b4:	a8 a4 00 00 	l.ori r5,r4,0x0
    37b8:	18 60 00 00 	l.movhi r3,0x0
    37bc:	a8 63 f3 cc 	l.ori r3,r3,0xf3cc
    37c0:	a8 86 00 00 	l.ori r4,r6,0x0
    37c4:	07 ff ff bd 	l.jal 36b8 <__setlocale_r>
    37c8:	84 63 00 00 	l.lwz r3,0x0(r3)
    37cc:	85 21 00 00 	l.lwz r9,0x0(r1)
    37d0:	84 41 00 04 	l.lwz r2,0x4(r1)
    37d4:	44 00 48 00 	l.jr r9
    37d8:	9c 21 00 08 	l.addi r1,r1,0x8

000037dc <_localeconv>:
    37dc:	9c 21 ff f8 	l.addi r1,r1,0xfffffff8
    37e0:	d4 01 10 04 	l.sw 0x4(r1),r2
    37e4:	9c 41 00 08 	l.addi r2,r1,0x8
    37e8:	d4 01 48 00 	l.sw 0x0(r1),r9
    37ec:	18 60 00 00 	l.movhi r3,0x0
    37f0:	a8 63 f3 cc 	l.ori r3,r3,0xf3cc
    37f4:	07 ff ff e3 	l.jal 3780 <__localeconv_r>
    37f8:	84 63 00 00 	l.lwz r3,0x0(r3)
    37fc:	85 21 00 00 	l.lwz r9,0x0(r1)
    3800:	84 41 00 04 	l.lwz r2,0x4(r1)
    3804:	44 00 48 00 	l.jr r9
    3808:	9c 21 00 08 	l.addi r1,r1,0x8

0000380c <___swsetup>:
    380c:	9c 21 ff f0 	l.addi r1,r1,0xfffffff0
    3810:	d4 01 10 04 	l.sw 0x4(r1),r2
    3814:	9c 41 00 10 	l.addi r2,r1,0x10
    3818:	d4 01 48 00 	l.sw 0x0(r1),r9
    381c:	d4 01 50 08 	l.sw 0x8(r1),r10
    3820:	d4 01 60 0c 	l.sw 0xc(r1),r12
    3824:	19 80 00 00 	l.movhi r12,0x0
    3828:	a9 8c f3 cc 	l.ori r12,r12,0xf3cc
    382c:	a9 43 00 00 	l.ori r10,r3,0x0
    3830:	84 6c 00 00 	l.lwz r3,0x0(r12)
    3834:	bc 03 00 00 	l.sfeqi r3,0x0
    3838:	10 00 00 06 	l.bf 3850 <___swsetup+0x44>
    383c:	15 00 00 00 	l.nop 0x0
    3840:	84 83 00 38 	l.lwz r4,0x38(r3)
    3844:	bc 24 00 00 	l.sfnei r4,0x0
    3848:	0c 00 00 43 	l.bnf 3954 <___swsetup+0x148>
    384c:	15 00 00 00 	l.nop 0x0
    3850:	94 aa 00 0c 	l.lhz r5,0xc(r10)
    3854:	a4 85 ff ff 	l.andi r4,r5,0xffff
    3858:	b8 64 00 43 	l.srli r3,r4,0x3
    385c:	ac 63 00 01 	l.xori r3,r3,0x1
    3860:	a4 63 00 01 	l.andi r3,r3,0x1
    3864:	bc 03 00 00 	l.sfeqi r3,0x0
    3868:	10 00 00 1e 	l.bf 38e0 <___swsetup+0xd4>
    386c:	b8 64 00 44 	l.srli r3,r4,0x4
    3870:	ac 63 00 01 	l.xori r3,r3,0x1
    3874:	a4 63 00 01 	l.andi r3,r3,0x1
    3878:	bc 03 00 00 	l.sfeqi r3,0x0
    387c:	0c 00 00 3a 	l.bnf 3964 <___swsetup+0x158>
    3880:	b8 64 00 42 	l.srli r3,r4,0x2
    3884:	a4 63 00 01 	l.andi r3,r3,0x1
    3888:	bc 03 00 00 	l.sfeqi r3,0x0
    388c:	10 00 00 14 	l.bf 38dc <___swsetup+0xd0>
    3890:	a8 65 00 08 	l.ori r3,r5,0x8
    3894:	84 8a 00 30 	l.lwz r4,0x30(r10)
    3898:	bc 04 00 00 	l.sfeqi r4,0x0
    389c:	10 00 00 07 	l.bf 38b8 <___swsetup+0xac>
    38a0:	9c 6a 00 40 	l.addi r3,r10,0x40
    38a4:	e4 04 18 00 	l.sfeq r4,r3
    38a8:	0c 00 00 31 	l.bnf 396c <___swsetup+0x160>
    38ac:	15 00 00 00 	l.nop 0x0
    38b0:	9c 60 00 00 	l.addi r3,r0,0x0
    38b4:	d4 0a 18 30 	l.sw 0x30(r10),r3
    38b8:	9c 80 ff db 	l.addi r4,r0,0xffffffdb
    38bc:	e0 65 20 03 	l.and r3,r5,r4
    38c0:	9c 80 00 00 	l.addi r4,r0,0x0
    38c4:	dc 0a 18 0c 	l.sh 0xc(r10),r3
    38c8:	a8 a3 00 00 	l.ori r5,r3,0x0
    38cc:	d4 0a 20 04 	l.sw 0x4(r10),r4
    38d0:	84 8a 00 10 	l.lwz r4,0x10(r10)
    38d4:	d4 0a 20 00 	l.sw 0x0(r10),r4
    38d8:	a8 65 00 08 	l.ori r3,r5,0x8
    38dc:	dc 0a 18 0c 	l.sh 0xc(r10),r3
    38e0:	84 6a 00 10 	l.lwz r3,0x10(r10)
    38e4:	bc 23 00 00 	l.sfnei r3,0x0
    38e8:	0c 00 00 15 	l.bnf 393c <___swsetup+0x130>
    38ec:	15 00 00 00 	l.nop 0x0
    38f0:	94 8a 00 0c 	l.lhz r4,0xc(r10)
    38f4:	a4 64 00 01 	l.andi r3,r4,0x1
    38f8:	bc 03 00 00 	l.sfeqi r3,0x0
    38fc:	0c 00 00 0a 	l.bnf 3924 <___swsetup+0x118>
    3900:	b8 64 00 41 	l.srli r3,r4,0x1
    3904:	a4 63 00 01 	l.andi r3,r3,0x1
    3908:	bc 23 00 00 	l.sfnei r3,0x0
    390c:	10 00 00 10 	l.bf 394c <___swsetup+0x140>
    3910:	9c 60 00 00 	l.addi r3,r0,0x0
    3914:	84 6a 00 14 	l.lwz r3,0x14(r10)
    3918:	d4 0a 18 08 	l.sw 0x8(r10),r3
    391c:	00 00 00 18 	l.j 397c <___swsetup+0x170>
    3920:	9d 60 00 00 	l.addi r11,r0,0x0
    3924:	84 6a 00 14 	l.lwz r3,0x14(r10)
    3928:	9c 80 00 00 	l.addi r4,r0,0x0
    392c:	e0 60 18 02 	l.sub r3,r0,r3
    3930:	d4 0a 20 08 	l.sw 0x8(r10),r4
    3934:	03 ff ff fa 	l.j 391c <___swsetup+0x110>
    3938:	d4 0a 18 18 	l.sw 0x18(r10),r3
    393c:	04 00 0e 94 	l.jal 738c <___smakebuf>
    3940:	a8 6a 00 00 	l.ori r3,r10,0x0
    3944:	03 ff ff ec 	l.j 38f4 <___swsetup+0xe8>
    3948:	94 8a 00 0c 	l.lhz r4,0xc(r10)
    394c:	03 ff ff f4 	l.j 391c <___swsetup+0x110>
    3950:	d4 0a 18 08 	l.sw 0x8(r10),r3
    3954:	04 00 00 53 	l.jal 3aa0 <___sinit>
    3958:	15 00 00 00 	l.nop 0x0
    395c:	03 ff ff be 	l.j 3854 <___swsetup+0x48>
    3960:	94 aa 00 0c 	l.lhz r5,0xc(r10)
    3964:	00 00 00 06 	l.j 397c <___swsetup+0x170>
    3968:	9d 60 ff ff 	l.addi r11,r0,0xffffffff
    396c:	04 00 01 71 	l.jal 3f30 <__free_r>
    3970:	84 6c 00 00 	l.lwz r3,0x0(r12)
    3974:	03 ff ff cf 	l.j 38b0 <___swsetup+0xa4>
    3978:	94 aa 00 0c 	l.lhz r5,0xc(r10)
    397c:	85 21 00 00 	l.lwz r9,0x0(r1)
    3980:	84 41 00 04 	l.lwz r2,0x4(r1)
    3984:	85 41 00 08 	l.lwz r10,0x8(r1)
    3988:	85 81 00 0c 	l.lwz r12,0xc(r1)
    398c:	44 00 48 00 	l.jr r9
    3990:	9c 21 00 10 	l.addi r1,r1,0x10

00003994 <_std>:
    3994:	9c 21 ff fc 	l.addi r1,r1,0xfffffffc
    3998:	d4 01 10 00 	l.sw 0x0(r1),r2
    399c:	9c 41 00 04 	l.addi r2,r1,0x4
    39a0:	dc 03 20 0c 	l.sh 0xc(r3),r4
    39a4:	18 80 00 00 	l.movhi r4,0x0
    39a8:	a8 84 76 cc 	l.ori r4,r4,0x76cc
    39ac:	dc 03 28 0e 	l.sh 0xe(r3),r5
    39b0:	d4 03 20 2c 	l.sw 0x2c(r3),r4
    39b4:	d4 03 18 1c 	l.sw 0x1c(r3),r3
    39b8:	9c 80 00 00 	l.addi r4,r0,0x0
    39bc:	d4 03 20 00 	l.sw 0x0(r3),r4
    39c0:	d4 03 20 04 	l.sw 0x4(r3),r4
    39c4:	d4 03 20 08 	l.sw 0x8(r3),r4
    39c8:	d4 03 20 10 	l.sw 0x10(r3),r4
    39cc:	d4 03 20 14 	l.sw 0x14(r3),r4
    39d0:	d4 03 20 18 	l.sw 0x18(r3),r4
    39d4:	18 80 00 00 	l.movhi r4,0x0
    39d8:	a8 84 75 38 	l.ori r4,r4,0x7538
    39dc:	d4 03 20 20 	l.sw 0x20(r3),r4
    39e0:	18 80 00 00 	l.movhi r4,0x0
    39e4:	a8 84 75 ac 	l.ori r4,r4,0x75ac
    39e8:	d4 03 20 24 	l.sw 0x24(r3),r4
    39ec:	18 80 00 00 	l.movhi r4,0x0
    39f0:	a8 84 76 5c 	l.ori r4,r4,0x765c
    39f4:	d4 03 20 28 	l.sw 0x28(r3),r4
    39f8:	84 41 00 00 	l.lwz r2,0x0(r1)
    39fc:	44 00 48 00 	l.jr r9
    3a00:	9c 21 00 04 	l.addi r1,r1,0x4

00003a04 <___sfmoreglue>:
    3a04:	9c 21 ff ec 	l.addi r1,r1,0xffffffec
    3a08:	d4 01 10 04 	l.sw 0x4(r1),r2
    3a0c:	9c 41 00 14 	l.addi r2,r1,0x14
    3a10:	d4 01 48 00 	l.sw 0x0(r1),r9
    3a14:	d4 01 50 08 	l.sw 0x8(r1),r10
    3a18:	d4 01 60 0c 	l.sw 0xc(r1),r12
    3a1c:	d4 01 70 10 	l.sw 0x10(r1),r14
    3a20:	a9 c4 00 00 	l.ori r14,r4,0x0
    3a24:	9c 80 00 5c 	l.addi r4,r0,0x5c
    3a28:	e1 8e 23 06 	l.mul r12,r14,r4
    3a2c:	04 00 02 8c 	l.jal 445c <__malloc_r>
    3a30:	9c 8c 00 0c 	l.addi r4,r12,0xc
    3a34:	9c 80 00 00 	l.addi r4,r0,0x0
    3a38:	9c cb 00 0c 	l.addi r6,r11,0xc
    3a3c:	a9 4b 00 00 	l.ori r10,r11,0x0
    3a40:	e4 2b 20 00 	l.sfne r11,r4
    3a44:	a8 ac 00 00 	l.ori r5,r12,0x0
    3a48:	a8 66 00 00 	l.ori r3,r6,0x0
    3a4c:	0c 00 00 08 	l.bnf 3a6c <___sfmoreglue+0x68>
    3a50:	a9 64 00 00 	l.ori r11,r4,0x0
    3a54:	9c e0 00 00 	l.addi r7,r0,0x0
    3a58:	d4 0a 70 04 	l.sw 0x4(r10),r14
    3a5c:	d4 0a 38 00 	l.sw 0x0(r10),r7
    3a60:	04 00 02 0d 	l.jal 4294 <_memset>
    3a64:	d4 0a 30 08 	l.sw 0x8(r10),r6
    3a68:	a9 6a 00 00 	l.ori r11,r10,0x0
    3a6c:	85 21 00 00 	l.lwz r9,0x0(r1)
    3a70:	84 41 00 04 	l.lwz r2,0x4(r1)
    3a74:	85 41 00 08 	l.lwz r10,0x8(r1)
    3a78:	85 81 00 0c 	l.lwz r12,0xc(r1)
    3a7c:	85 c1 00 10 	l.lwz r14,0x10(r1)
    3a80:	44 00 48 00 	l.jr r9
    3a84:	9c 21 00 14 	l.addi r1,r1,0x14

00003a88 <___sfp_lock_acquire>:
    3a88:	9c 21 ff fc 	l.addi r1,r1,0xfffffffc
    3a8c:	d4 01 10 00 	l.sw 0x0(r1),r2
    3a90:	9c 41 00 04 	l.addi r2,r1,0x4
    3a94:	84 41 00 00 	l.lwz r2,0x0(r1)
    3a98:	44 00 48 00 	l.jr r9
    3a9c:	9c 21 00 04 	l.addi r1,r1,0x4

00003aa0 <___sinit>:
    3aa0:	9c 21 ff f4 	l.addi r1,r1,0xfffffff4
    3aa4:	d4 01 10 04 	l.sw 0x4(r1),r2
    3aa8:	9c 41 00 0c 	l.addi r2,r1,0xc
    3aac:	d4 01 48 00 	l.sw 0x0(r1),r9
    3ab0:	d4 01 50 08 	l.sw 0x8(r1),r10
    3ab4:	a9 43 00 00 	l.ori r10,r3,0x0
    3ab8:	18 c0 00 00 	l.movhi r6,0x0
    3abc:	a8 c6 3c 58 	l.ori r6,r6,0x3c58
    3ac0:	9c a3 02 ec 	l.addi r5,r3,0x2ec
    3ac4:	d4 0a 30 3c 	l.sw 0x3c(r10),r6
    3ac8:	d4 0a 2a e8 	l.sw 0x2e8(r10),r5
    3acc:	9c c0 00 01 	l.addi r6,r0,0x1
    3ad0:	9c a0 00 00 	l.addi r5,r0,0x0
    3ad4:	d4 0a 30 38 	l.sw 0x38(r10),r6
    3ad8:	84 63 00 04 	l.lwz r3,0x4(r3)
    3adc:	9c c0 00 03 	l.addi r6,r0,0x3
    3ae0:	9c 80 00 04 	l.addi r4,r0,0x4
    3ae4:	d4 0a 32 e4 	l.sw 0x2e4(r10),r6
    3ae8:	d4 0a 2a e0 	l.sw 0x2e0(r10),r5
    3aec:	07 ff ff aa 	l.jal 3994 <_std>
    3af0:	a8 ca 00 00 	l.ori r6,r10,0x0
    3af4:	84 6a 00 08 	l.lwz r3,0x8(r10)
    3af8:	9c 80 00 09 	l.addi r4,r0,0x9
    3afc:	9c a0 00 01 	l.addi r5,r0,0x1
    3b00:	07 ff ff a5 	l.jal 3994 <_std>
    3b04:	a8 ca 00 00 	l.ori r6,r10,0x0
    3b08:	84 6a 00 0c 	l.lwz r3,0xc(r10)
    3b0c:	a8 ca 00 00 	l.ori r6,r10,0x0
    3b10:	9c 80 00 0a 	l.addi r4,r0,0xa
    3b14:	07 ff ff a0 	l.jal 3994 <_std>
    3b18:	9c a0 00 02 	l.addi r5,r0,0x2
    3b1c:	85 21 00 00 	l.lwz r9,0x0(r1)
    3b20:	84 41 00 04 	l.lwz r2,0x4(r1)
    3b24:	85 41 00 08 	l.lwz r10,0x8(r1)
    3b28:	44 00 48 00 	l.jr r9
    3b2c:	9c 21 00 0c 	l.addi r1,r1,0xc

00003b30 <___sfp_lock_release>:
    3b30:	9c 21 ff fc 	l.addi r1,r1,0xfffffffc
    3b34:	d4 01 10 00 	l.sw 0x0(r1),r2
    3b38:	9c 41 00 04 	l.addi r2,r1,0x4
    3b3c:	84 41 00 00 	l.lwz r2,0x0(r1)
    3b40:	44 00 48 00 	l.jr r9
    3b44:	9c 21 00 04 	l.addi r1,r1,0x4

00003b48 <___sfp>:
    3b48:	9c 21 ff f0 	l.addi r1,r1,0xfffffff0
    3b4c:	d4 01 10 04 	l.sw 0x4(r1),r2
    3b50:	9c 41 00 10 	l.addi r2,r1,0x10
    3b54:	d4 01 48 00 	l.sw 0x0(r1),r9
    3b58:	d4 01 50 08 	l.sw 0x8(r1),r10
    3b5c:	d4 01 60 0c 	l.sw 0xc(r1),r12
    3b60:	a9 83 00 00 	l.ori r12,r3,0x0
    3b64:	18 60 00 00 	l.movhi r3,0x0
    3b68:	a8 63 cd 78 	l.ori r3,r3,0xcd78
    3b6c:	85 43 00 00 	l.lwz r10,0x0(r3)
    3b70:	84 6a 00 38 	l.lwz r3,0x38(r10)
    3b74:	bc 23 00 00 	l.sfnei r3,0x0
    3b78:	0c 00 00 1e 	l.bnf 3bf0 <___sfp+0xa8>
    3b7c:	15 00 00 00 	l.nop 0x0
    3b80:	9d 4a 02 e0 	l.addi r10,r10,0x2e0
    3b84:	84 8a 00 04 	l.lwz r4,0x4(r10)
    3b88:	9c 84 ff ff 	l.addi r4,r4,0xffffffff
    3b8c:	bd 84 00 00 	l.sfltsi r4,0x0
    3b90:	10 00 00 09 	l.bf 3bb4 <___sfp+0x6c>
    3b94:	85 6a 00 08 	l.lwz r11,0x8(r10)
    3b98:	98 6b 00 0c 	l.lhs r3,0xc(r11)
    3b9c:	bc 23 00 00 	l.sfnei r3,0x0
    3ba0:	0c 00 00 18 	l.bnf 3c00 <___sfp+0xb8>
    3ba4:	9c 84 ff ff 	l.addi r4,r4,0xffffffff
    3ba8:	bd 84 00 00 	l.sfltsi r4,0x0
    3bac:	0f ff ff fb 	l.bnf 3b98 <___sfp+0x50>
    3bb0:	9d 6b 00 5c 	l.addi r11,r11,0x5c
    3bb4:	85 6a 00 00 	l.lwz r11,0x0(r10)
    3bb8:	bc 2b 00 00 	l.sfnei r11,0x0
    3bbc:	0c 00 00 04 	l.bnf 3bcc <___sfp+0x84>
    3bc0:	a8 6c 00 00 	l.ori r3,r12,0x0
    3bc4:	03 ff ff f0 	l.j 3b84 <___sfp+0x3c>
    3bc8:	a9 4b 00 00 	l.ori r10,r11,0x0
    3bcc:	07 ff ff 8e 	l.jal 3a04 <___sfmoreglue>
    3bd0:	9c 80 00 04 	l.addi r4,r0,0x4
    3bd4:	bc 2b 00 00 	l.sfnei r11,0x0
    3bd8:	13 ff ff fb 	l.bf 3bc4 <___sfp+0x7c>
    3bdc:	d4 0a 58 00 	l.sw 0x0(r10),r11
    3be0:	9c 60 00 0c 	l.addi r3,r0,0xc
    3be4:	9d 60 00 00 	l.addi r11,r0,0x0
    3be8:	00 00 00 16 	l.j 3c40 <___sfp+0xf8>
    3bec:	d4 0c 18 00 	l.sw 0x0(r12),r3
    3bf0:	07 ff ff ac 	l.jal 3aa0 <___sinit>
    3bf4:	a8 6a 00 00 	l.ori r3,r10,0x0
    3bf8:	03 ff ff e3 	l.j 3b84 <___sfp+0x3c>
    3bfc:	9d 4a 02 e0 	l.addi r10,r10,0x2e0
    3c00:	9c 60 ff ff 	l.addi r3,r0,0xffffffff
    3c04:	dc 0b 18 0e 	l.sh 0xe(r11),r3
    3c08:	9c 60 00 00 	l.addi r3,r0,0x0
    3c0c:	d4 0b 18 00 	l.sw 0x0(r11),r3
    3c10:	d4 0b 18 08 	l.sw 0x8(r11),r3
    3c14:	9c 60 00 01 	l.addi r3,r0,0x1
    3c18:	dc 0b 18 0c 	l.sh 0xc(r11),r3
    3c1c:	9c 60 00 00 	l.addi r3,r0,0x0
    3c20:	d4 0b 18 04 	l.sw 0x4(r11),r3
    3c24:	d4 0b 18 10 	l.sw 0x10(r11),r3
    3c28:	d4 0b 18 14 	l.sw 0x14(r11),r3
    3c2c:	d4 0b 18 18 	l.sw 0x18(r11),r3
    3c30:	d4 0b 18 30 	l.sw 0x30(r11),r3
    3c34:	d4 0b 18 34 	l.sw 0x34(r11),r3
    3c38:	d4 0b 18 44 	l.sw 0x44(r11),r3
    3c3c:	d4 0b 18 48 	l.sw 0x48(r11),r3
    3c40:	85 21 00 00 	l.lwz r9,0x0(r1)
    3c44:	84 41 00 04 	l.lwz r2,0x4(r1)
    3c48:	85 41 00 08 	l.lwz r10,0x8(r1)
    3c4c:	85 81 00 0c 	l.lwz r12,0xc(r1)
    3c50:	44 00 48 00 	l.jr r9
    3c54:	9c 21 00 10 	l.addi r1,r1,0x10

00003c58 <__cleanup_r>:
    3c58:	9c 21 ff f8 	l.addi r1,r1,0xfffffff8
    3c5c:	d4 01 10 04 	l.sw 0x4(r1),r2
    3c60:	9c 41 00 08 	l.addi r2,r1,0x8
    3c64:	d4 01 48 00 	l.sw 0x0(r1),r9
    3c68:	18 80 00 00 	l.movhi r4,0x0
    3c6c:	a8 84 78 a8 	l.ori r4,r4,0x78a8
    3c70:	04 00 0f 1b 	l.jal 78dc <__fwalk>
    3c74:	15 00 00 00 	l.nop 0x0
    3c78:	85 21 00 00 	l.lwz r9,0x0(r1)
    3c7c:	84 41 00 04 	l.lwz r2,0x4(r1)
    3c80:	44 00 48 00 	l.jr r9
    3c84:	9c 21 00 08 	l.addi r1,r1,0x8

00003c88 <__cleanup>:
    3c88:	9c 21 ff f8 	l.addi r1,r1,0xfffffff8
    3c8c:	d4 01 10 04 	l.sw 0x4(r1),r2
    3c90:	9c 41 00 08 	l.addi r2,r1,0x8
    3c94:	d4 01 48 00 	l.sw 0x0(r1),r9
    3c98:	18 60 00 00 	l.movhi r3,0x0
    3c9c:	a8 63 cd 78 	l.ori r3,r3,0xcd78
    3ca0:	07 ff ff ee 	l.jal 3c58 <__cleanup_r>
    3ca4:	84 63 00 00 	l.lwz r3,0x0(r3)
    3ca8:	85 21 00 00 	l.lwz r9,0x0(r1)
    3cac:	84 41 00 04 	l.lwz r2,0x4(r1)
    3cb0:	44 00 48 00 	l.jr r9
    3cb4:	9c 21 00 08 	l.addi r1,r1,0x8

00003cb8 <___fp_lock>:
    3cb8:	9c 21 ff fc 	l.addi r1,r1,0xfffffffc
    3cbc:	d4 01 10 00 	l.sw 0x0(r1),r2
    3cc0:	9c 41 00 04 	l.addi r2,r1,0x4
    3cc4:	9d 60 00 00 	l.addi r11,r0,0x0
    3cc8:	84 41 00 00 	l.lwz r2,0x0(r1)
    3ccc:	44 00 48 00 	l.jr r9
    3cd0:	9c 21 00 04 	l.addi r1,r1,0x4

00003cd4 <___fp_unlock>:
    3cd4:	9c 21 ff fc 	l.addi r1,r1,0xfffffffc
    3cd8:	d4 01 10 00 	l.sw 0x0(r1),r2
    3cdc:	9c 41 00 04 	l.addi r2,r1,0x4
    3ce0:	9d 60 00 00 	l.addi r11,r0,0x0
    3ce4:	84 41 00 00 	l.lwz r2,0x0(r1)
    3ce8:	44 00 48 00 	l.jr r9
    3cec:	9c 21 00 04 	l.addi r1,r1,0x4

00003cf0 <___fp_lock_all>:
    3cf0:	9c 21 ff f8 	l.addi r1,r1,0xfffffff8
    3cf4:	d4 01 10 04 	l.sw 0x4(r1),r2
    3cf8:	9c 41 00 08 	l.addi r2,r1,0x8
    3cfc:	d4 01 48 00 	l.sw 0x0(r1),r9
    3d00:	18 60 00 00 	l.movhi r3,0x0
    3d04:	a8 63 f3 cc 	l.ori r3,r3,0xf3cc
    3d08:	18 80 00 00 	l.movhi r4,0x0
    3d0c:	a8 84 3c b8 	l.ori r4,r4,0x3cb8
    3d10:	04 00 0e f3 	l.jal 78dc <__fwalk>
    3d14:	84 63 00 00 	l.lwz r3,0x0(r3)
    3d18:	85 21 00 00 	l.lwz r9,0x0(r1)
    3d1c:	84 41 00 04 	l.lwz r2,0x4(r1)
    3d20:	44 00 48 00 	l.jr r9
    3d24:	9c 21 00 08 	l.addi r1,r1,0x8

00003d28 <___fp_unlock_all>:
    3d28:	9c 21 ff f8 	l.addi r1,r1,0xfffffff8
    3d2c:	d4 01 10 04 	l.sw 0x4(r1),r2
    3d30:	9c 41 00 08 	l.addi r2,r1,0x8
    3d34:	d4 01 48 00 	l.sw 0x0(r1),r9
    3d38:	18 60 00 00 	l.movhi r3,0x0
    3d3c:	a8 63 f3 cc 	l.ori r3,r3,0xf3cc
    3d40:	18 80 00 00 	l.movhi r4,0x0
    3d44:	a8 84 3c d4 	l.ori r4,r4,0x3cd4
    3d48:	04 00 0e e5 	l.jal 78dc <__fwalk>
    3d4c:	84 63 00 00 	l.lwz r3,0x0(r3)
    3d50:	85 21 00 00 	l.lwz r9,0x0(r1)
    3d54:	84 41 00 04 	l.lwz r2,0x4(r1)
    3d58:	44 00 48 00 	l.jr r9
    3d5c:	9c 21 00 08 	l.addi r1,r1,0x8

00003d60 <_strlen>:
    3d60:	9c 21 ff fc 	l.addi r1,r1,0xfffffffc
    3d64:	d4 01 10 00 	l.sw 0x0(r1),r2
    3d68:	9c 41 00 04 	l.addi r2,r1,0x4
    3d6c:	a4 83 00 03 	l.andi r4,r3,0x3
    3d70:	bc 24 00 00 	l.sfnei r4,0x0
    3d74:	10 00 00 16 	l.bf 3dcc <_strlen+0x6c>
    3d78:	a8 c3 00 00 	l.ori r6,r3,0x0
    3d7c:	00 00 00 04 	l.j 3d8c <_strlen+0x2c>
    3d80:	84 83 00 00 	l.lwz r4,0x0(r3)
    3d84:	9c 63 00 04 	l.addi r3,r3,0x4
    3d88:	84 83 00 00 	l.lwz r4,0x0(r3)
    3d8c:	18 e0 fe fe 	l.movhi r7,0xfefe
    3d90:	a8 e7 fe ff 	l.ori r7,r7,0xfeff
    3d94:	ac a4 ff ff 	l.xori r5,r4,0xffffffff
    3d98:	e0 84 38 00 	l.add r4,r4,r7
    3d9c:	e0 84 28 03 	l.and r4,r4,r5
    3da0:	18 a0 80 80 	l.movhi r5,0x8080
    3da4:	a8 a5 80 80 	l.ori r5,r5,0x8080
    3da8:	e0 84 28 03 	l.and r4,r4,r5
    3dac:	bc 24 00 00 	l.sfnei r4,0x0
    3db0:	0f ff ff f5 	l.bnf 3d84 <_strlen+0x24>
    3db4:	15 00 00 00 	l.nop 0x0
    3db8:	90 83 00 00 	l.lbs r4,0x0(r3)
    3dbc:	bc 04 00 00 	l.sfeqi r4,0x0
    3dc0:	10 00 00 07 	l.bf 3ddc <_strlen+0x7c>
    3dc4:	e1 63 30 02 	l.sub r11,r3,r6
    3dc8:	9c 63 00 01 	l.addi r3,r3,0x1
    3dcc:	90 83 00 00 	l.lbs r4,0x0(r3)
    3dd0:	bc 04 00 00 	l.sfeqi r4,0x0
    3dd4:	0f ff ff fd 	l.bnf 3dc8 <_strlen+0x68>
    3dd8:	e1 63 30 02 	l.sub r11,r3,r6
    3ddc:	84 41 00 00 	l.lwz r2,0x0(r1)
    3de0:	44 00 48 00 	l.jr r9
    3de4:	9c 21 00 04 	l.addi r1,r1,0x4

00003de8 <__malloc_trim_r>:
    3de8:	9c 21 ff e8 	l.addi r1,r1,0xffffffe8
    3dec:	d4 01 10 04 	l.sw 0x4(r1),r2
    3df0:	9c 41 00 18 	l.addi r2,r1,0x18
    3df4:	d4 01 48 00 	l.sw 0x0(r1),r9
    3df8:	d4 01 50 08 	l.sw 0x8(r1),r10
    3dfc:	d4 01 60 0c 	l.sw 0xc(r1),r12
    3e00:	d4 01 70 10 	l.sw 0x10(r1),r14
    3e04:	d4 01 80 14 	l.sw 0x14(r1),r16
    3e08:	a9 c4 00 00 	l.ori r14,r4,0x0
    3e0c:	1a 00 00 00 	l.movhi r16,0x0
    3e10:	aa 10 f4 2c 	l.ori r16,r16,0xf42c
    3e14:	04 00 0f 24 	l.jal 7aa4 <___malloc_lock>
    3e18:	a9 43 00 00 	l.ori r10,r3,0x0
    3e1c:	84 b0 00 08 	l.lwz r5,0x8(r16)
    3e20:	9c c0 ff fc 	l.addi r6,r0,0xfffffffc
    3e24:	a8 6a 00 00 	l.ori r3,r10,0x0
    3e28:	84 a5 00 04 	l.lwz r5,0x4(r5)
    3e2c:	e1 85 30 03 	l.and r12,r5,r6
    3e30:	e0 ac 70 02 	l.sub r5,r12,r14
    3e34:	9c c0 f0 00 	l.addi r6,r0,0xfffff000
    3e38:	9c a5 0f ef 	l.addi r5,r5,0xfef
    3e3c:	e0 a5 30 03 	l.and r5,r5,r6
    3e40:	e1 c5 30 00 	l.add r14,r5,r6
    3e44:	bd 6e 10 00 	l.sfgesi r14,0x1000
    3e48:	0c 00 00 0a 	l.bnf 3e70 <__malloc_trim_r+0x88>
    3e4c:	9c 80 00 00 	l.addi r4,r0,0x0
    3e50:	04 00 0f 21 	l.jal 7ad4 <__sbrk_r>
    3e54:	15 00 00 00 	l.nop 0x0
    3e58:	84 b0 00 08 	l.lwz r5,0x8(r16)
    3e5c:	a8 6a 00 00 	l.ori r3,r10,0x0
    3e60:	e0 a5 60 00 	l.add r5,r5,r12
    3e64:	e4 05 58 00 	l.sfeq r5,r11
    3e68:	10 00 00 06 	l.bf 3e80 <__malloc_trim_r+0x98>
    3e6c:	e0 80 70 02 	l.sub r4,r0,r14
    3e70:	04 00 0f 13 	l.jal 7abc <___malloc_unlock>
    3e74:	15 00 00 00 	l.nop 0x0
    3e78:	00 00 00 26 	l.j 3f10 <__malloc_trim_r+0x128>
    3e7c:	9d 60 00 00 	l.addi r11,r0,0x0
    3e80:	04 00 0f 15 	l.jal 7ad4 <__sbrk_r>
    3e84:	a8 6a 00 00 	l.ori r3,r10,0x0
    3e88:	e0 ac 70 02 	l.sub r5,r12,r14
    3e8c:	a8 6a 00 00 	l.ori r3,r10,0x0
    3e90:	9c 80 00 00 	l.addi r4,r0,0x0
    3e94:	18 e0 00 00 	l.movhi r7,0x0
    3e98:	a8 e7 f3 f0 	l.ori r7,r7,0xf3f0
    3e9c:	bc 2b ff ff 	l.sfnei r11,0xffffffff
    3ea0:	10 00 00 14 	l.bf 3ef0 <__malloc_trim_r+0x108>
    3ea4:	a8 c5 00 01 	l.ori r6,r5,0x1
    3ea8:	04 00 0f 0b 	l.jal 7ad4 <__sbrk_r>
    3eac:	15 00 00 00 	l.nop 0x0
    3eb0:	84 f0 00 08 	l.lwz r7,0x8(r16)
    3eb4:	a8 cb 00 00 	l.ori r6,r11,0x0
    3eb8:	a8 6a 00 00 	l.ori r3,r10,0x0
    3ebc:	e1 8b 38 02 	l.sub r12,r11,r7
    3ec0:	bd ac 00 0f 	l.sflesi r12,0xf
    3ec4:	13 ff ff eb 	l.bf 3e70 <__malloc_trim_r+0x88>
    3ec8:	a8 ac 00 01 	l.ori r5,r12,0x1
    3ecc:	18 80 00 00 	l.movhi r4,0x0
    3ed0:	a8 84 f4 20 	l.ori r4,r4,0xf420
    3ed4:	d4 07 28 04 	l.sw 0x4(r7),r5
    3ed8:	85 64 00 00 	l.lwz r11,0x0(r4)
    3edc:	18 80 00 00 	l.movhi r4,0x0
    3ee0:	a8 84 f3 f0 	l.ori r4,r4,0xf3f0
    3ee4:	e1 66 58 02 	l.sub r11,r6,r11
    3ee8:	03 ff ff e2 	l.j 3e70 <__malloc_trim_r+0x88>
    3eec:	d4 04 58 00 	l.sw 0x0(r4),r11
    3ef0:	84 87 00 00 	l.lwz r4,0x0(r7)
    3ef4:	a8 6a 00 00 	l.ori r3,r10,0x0
    3ef8:	84 b0 00 08 	l.lwz r5,0x8(r16)
    3efc:	e0 84 70 02 	l.sub r4,r4,r14
    3f00:	d4 05 30 04 	l.sw 0x4(r5),r6
    3f04:	04 00 0e ee 	l.jal 7abc <___malloc_unlock>
    3f08:	d4 07 20 00 	l.sw 0x0(r7),r4
    3f0c:	9d 60 00 01 	l.addi r11,r0,0x1
    3f10:	85 21 00 00 	l.lwz r9,0x0(r1)
    3f14:	84 41 00 04 	l.lwz r2,0x4(r1)
    3f18:	85 41 00 08 	l.lwz r10,0x8(r1)
    3f1c:	85 81 00 0c 	l.lwz r12,0xc(r1)
    3f20:	85 c1 00 10 	l.lwz r14,0x10(r1)
    3f24:	86 01 00 14 	l.lwz r16,0x14(r1)
    3f28:	44 00 48 00 	l.jr r9
    3f2c:	9c 21 00 18 	l.addi r1,r1,0x18

00003f30 <__free_r>:
    3f30:	9c 21 ff f0 	l.addi r1,r1,0xfffffff0
    3f34:	d4 01 10 04 	l.sw 0x4(r1),r2
    3f38:	9c 41 00 10 	l.addi r2,r1,0x10
    3f3c:	d4 01 48 00 	l.sw 0x0(r1),r9
    3f40:	d4 01 50 08 	l.sw 0x8(r1),r10
    3f44:	d4 01 60 0c 	l.sw 0xc(r1),r12
    3f48:	a9 44 00 00 	l.ori r10,r4,0x0
    3f4c:	bc 24 00 00 	l.sfnei r4,0x0
    3f50:	0c 00 00 b6 	l.bnf 4228 <__free_r+0x2f8>
    3f54:	a9 83 00 00 	l.ori r12,r3,0x0
    3f58:	04 00 0e d3 	l.jal 7aa4 <___malloc_lock>
    3f5c:	15 00 00 00 	l.nop 0x0
    3f60:	9c 8a ff f8 	l.addi r4,r10,0xfffffff8
    3f64:	9c a0 ff fe 	l.addi r5,r0,0xfffffffe
    3f68:	84 64 00 04 	l.lwz r3,0x4(r4)
    3f6c:	19 40 00 00 	l.movhi r10,0x0
    3f70:	a9 4a f4 2c 	l.ori r10,r10,0xf42c
    3f74:	9d 20 ff fc 	l.addi r9,r0,0xfffffffc
    3f78:	e0 e3 28 03 	l.and r7,r3,r5
    3f7c:	85 0a 00 08 	l.lwz r8,0x8(r10)
    3f80:	e0 a4 38 00 	l.add r5,r4,r7
    3f84:	84 c5 00 04 	l.lwz r6,0x4(r5)
    3f88:	e4 28 28 00 	l.sfne r8,r5
    3f8c:	10 00 00 1a 	l.bf 3ff4 <__free_r+0xc4>
    3f90:	e1 06 48 03 	l.and r8,r6,r9
    3f94:	a4 63 00 01 	l.andi r3,r3,0x1
    3f98:	bc 23 00 00 	l.sfnei r3,0x0
    3f9c:	10 00 00 09 	l.bf 3fc0 <__free_r+0x90>
    3fa0:	e0 e7 40 00 	l.add r7,r7,r8
    3fa4:	84 64 00 00 	l.lwz r3,0x0(r4)
    3fa8:	e0 84 18 02 	l.sub r4,r4,r3
    3fac:	e0 e7 18 00 	l.add r7,r7,r3
    3fb0:	84 c4 00 0c 	l.lwz r6,0xc(r4)
    3fb4:	84 64 00 08 	l.lwz r3,0x8(r4)
    3fb8:	d4 06 18 08 	l.sw 0x8(r6),r3
    3fbc:	d4 03 30 0c 	l.sw 0xc(r3),r6
    3fc0:	a8 67 00 01 	l.ori r3,r7,0x1
    3fc4:	d4 0a 20 08 	l.sw 0x8(r10),r4
    3fc8:	d4 04 18 04 	l.sw 0x4(r4),r3
    3fcc:	18 60 00 00 	l.movhi r3,0x0
    3fd0:	a8 63 f4 28 	l.ori r3,r3,0xf428
    3fd4:	84 63 00 00 	l.lwz r3,0x0(r3)
    3fd8:	e4 87 18 00 	l.sfltu r7,r3
    3fdc:	0c 00 00 62 	l.bnf 4164 <__free_r+0x234>
    3fe0:	a8 6c 00 00 	l.ori r3,r12,0x0
    3fe4:	04 00 0e b6 	l.jal 7abc <___malloc_unlock>
    3fe8:	a8 6c 00 00 	l.ori r3,r12,0x0
    3fec:	00 00 00 8f 	l.j 4228 <__free_r+0x2f8>
    3ff0:	15 00 00 00 	l.nop 0x0
    3ff4:	a4 63 00 01 	l.andi r3,r3,0x1
    3ff8:	d4 05 40 04 	l.sw 0x4(r5),r8
    3ffc:	bc 23 00 00 	l.sfnei r3,0x0
    4000:	10 00 00 0c 	l.bf 4030 <__free_r+0x100>
    4004:	9d 20 00 00 	l.addi r9,r0,0x0
    4008:	84 64 00 00 	l.lwz r3,0x0(r4)
    400c:	18 c0 00 00 	l.movhi r6,0x0
    4010:	a8 c6 f4 34 	l.ori r6,r6,0xf434
    4014:	e0 84 18 02 	l.sub r4,r4,r3
    4018:	e0 e7 18 00 	l.add r7,r7,r3
    401c:	84 64 00 08 	l.lwz r3,0x8(r4)
    4020:	e4 23 30 00 	l.sfne r3,r6
    4024:	10 00 00 4c 	l.bf 4154 <__free_r+0x224>
    4028:	15 00 00 00 	l.nop 0x0
    402c:	9d 20 00 01 	l.addi r9,r0,0x1
    4030:	e0 65 40 00 	l.add r3,r5,r8
    4034:	84 63 00 04 	l.lwz r3,0x4(r3)
    4038:	a4 63 00 01 	l.andi r3,r3,0x1
    403c:	bc 23 00 00 	l.sfnei r3,0x0
    4040:	10 00 00 11 	l.bf 4084 <__free_r+0x154>
    4044:	a8 67 00 01 	l.ori r3,r7,0x1
    4048:	bc 29 00 00 	l.sfnei r9,0x0
    404c:	10 00 00 3d 	l.bf 4140 <__free_r+0x210>
    4050:	e0 e7 40 00 	l.add r7,r7,r8
    4054:	84 65 00 08 	l.lwz r3,0x8(r5)
    4058:	18 c0 00 00 	l.movhi r6,0x0
    405c:	a8 c6 f4 34 	l.ori r6,r6,0xf434
    4060:	e4 23 30 00 	l.sfne r3,r6
    4064:	10 00 00 38 	l.bf 4144 <__free_r+0x214>
    4068:	15 00 00 00 	l.nop 0x0
    406c:	d4 06 20 0c 	l.sw 0xc(r6),r4
    4070:	d4 06 20 08 	l.sw 0x8(r6),r4
    4074:	d4 04 30 0c 	l.sw 0xc(r4),r6
    4078:	d4 04 30 08 	l.sw 0x8(r4),r6
    407c:	9d 20 00 01 	l.addi r9,r0,0x1
    4080:	a8 67 00 01 	l.ori r3,r7,0x1
    4084:	e0 a4 38 00 	l.add r5,r4,r7
    4088:	d4 04 18 04 	l.sw 0x4(r4),r3
    408c:	bc 29 00 00 	l.sfnei r9,0x0
    4090:	13 ff ff d5 	l.bf 3fe4 <__free_r+0xb4>
    4094:	d4 05 38 00 	l.sw 0x0(r5),r7
    4098:	bc 47 01 ff 	l.sfgtui r7,0x1ff
    409c:	0c 00 00 1a 	l.bnf 4104 <__free_r+0x1d4>
    40a0:	15 00 00 00 	l.nop 0x0
    40a4:	b8 67 00 49 	l.srli r3,r7,0x9
    40a8:	bc 23 00 00 	l.sfnei r3,0x0
    40ac:	10 00 00 46 	l.bf 41c4 <__free_r+0x294>
    40b0:	bc 43 00 04 	l.sfgtui r3,0x4
    40b4:	b8 a7 00 43 	l.srli r5,r7,0x3
    40b8:	b8 65 00 03 	l.slli r3,r5,0x3
    40bc:	19 20 00 00 	l.movhi r9,0x0
    40c0:	a9 29 f4 2c 	l.ori r9,r9,0xf42c
    40c4:	e0 c3 48 00 	l.add r6,r3,r9
    40c8:	84 66 00 08 	l.lwz r3,0x8(r6)
    40cc:	e4 23 30 00 	l.sfne r3,r6
    40d0:	10 00 00 2b 	l.bf 417c <__free_r+0x24c>
    40d4:	e4 03 30 00 	l.sfeq r3,r6
    40d8:	b8 e5 00 42 	l.srli r7,r5,0x2
    40dc:	85 0a 00 04 	l.lwz r8,0x4(r10)
    40e0:	9c a0 00 01 	l.addi r5,r0,0x1
    40e4:	e0 a5 38 08 	l.sll r5,r5,r7
    40e8:	e0 a8 28 04 	l.or r5,r8,r5
    40ec:	d4 0a 28 04 	l.sw 0x4(r10),r5
    40f0:	d4 04 30 0c 	l.sw 0xc(r4),r6
    40f4:	d4 04 18 08 	l.sw 0x8(r4),r3
    40f8:	d4 03 20 0c 	l.sw 0xc(r3),r4
    40fc:	03 ff ff ba 	l.j 3fe4 <__free_r+0xb4>
    4100:	d4 06 20 08 	l.sw 0x8(r6),r4
    4104:	b8 a7 00 43 	l.srli r5,r7,0x3
    4108:	19 00 00 00 	l.movhi r8,0x0
    410c:	a9 08 f4 2c 	l.ori r8,r8,0xf42c
    4110:	b8 65 00 03 	l.slli r3,r5,0x3
    4114:	84 ea 00 04 	l.lwz r7,0x4(r10)
    4118:	e0 c3 40 00 	l.add r6,r3,r8
    411c:	b8 a5 00 42 	l.srli r5,r5,0x2
    4120:	9c 60 00 01 	l.addi r3,r0,0x1
    4124:	d4 04 30 0c 	l.sw 0xc(r4),r6
    4128:	e0 a3 28 08 	l.sll r5,r3,r5
    412c:	84 66 00 08 	l.lwz r3,0x8(r6)
    4130:	e0 a7 28 04 	l.or r5,r7,r5
    4134:	d4 04 18 08 	l.sw 0x8(r4),r3
    4138:	03 ff ff f0 	l.j 40f8 <__free_r+0x1c8>
    413c:	d4 0a 28 04 	l.sw 0x4(r10),r5
    4140:	84 65 00 08 	l.lwz r3,0x8(r5)
    4144:	84 c5 00 0c 	l.lwz r6,0xc(r5)
    4148:	d4 06 18 08 	l.sw 0x8(r6),r3
    414c:	03 ff ff cd 	l.j 4080 <__free_r+0x150>
    4150:	d4 03 30 0c 	l.sw 0xc(r3),r6
    4154:	84 c4 00 0c 	l.lwz r6,0xc(r4)
    4158:	d4 06 18 08 	l.sw 0x8(r6),r3
    415c:	03 ff ff b5 	l.j 4030 <__free_r+0x100>
    4160:	d4 03 30 0c 	l.sw 0xc(r3),r6
    4164:	18 80 00 00 	l.movhi r4,0x0
    4168:	a8 84 f4 24 	l.ori r4,r4,0xf424
    416c:	07 ff ff 1f 	l.jal 3de8 <__malloc_trim_r>
    4170:	84 84 00 00 	l.lwz r4,0x0(r4)
    4174:	03 ff ff 9c 	l.j 3fe4 <__free_r+0xb4>
    4178:	15 00 00 00 	l.nop 0x0
    417c:	10 00 00 10 	l.bf 41bc <__free_r+0x28c>
    4180:	9d 00 ff fc 	l.addi r8,r0,0xfffffffc
    4184:	84 a3 00 04 	l.lwz r5,0x4(r3)
    4188:	e0 a5 40 03 	l.and r5,r5,r8
    418c:	e4 a5 38 00 	l.sfleu r5,r7
    4190:	10 00 00 0b 	l.bf 41bc <__free_r+0x28c>
    4194:	15 00 00 00 	l.nop 0x0
    4198:	84 63 00 08 	l.lwz r3,0x8(r3)
    419c:	e4 03 30 00 	l.sfeq r3,r6
    41a0:	10 00 00 07 	l.bf 41bc <__free_r+0x28c>
    41a4:	9d 20 ff fc 	l.addi r9,r0,0xfffffffc
    41a8:	84 a3 00 04 	l.lwz r5,0x4(r3)
    41ac:	e0 a5 48 03 	l.and r5,r5,r9
    41b0:	e4 a5 38 00 	l.sfleu r5,r7
    41b4:	0f ff ff f9 	l.bnf 4198 <__free_r+0x268>
    41b8:	15 00 00 00 	l.nop 0x0
    41bc:	03 ff ff cd 	l.j 40f0 <__free_r+0x1c0>
    41c0:	84 c3 00 0c 	l.lwz r6,0xc(r3)
    41c4:	10 00 00 05 	l.bf 41d8 <__free_r+0x2a8>
    41c8:	bc 43 00 14 	l.sfgtui r3,0x14
    41cc:	b8 67 00 46 	l.srli r3,r7,0x6
    41d0:	03 ff ff ba 	l.j 40b8 <__free_r+0x188>
    41d4:	9c a3 00 38 	l.addi r5,r3,0x38
    41d8:	10 00 00 04 	l.bf 41e8 <__free_r+0x2b8>
    41dc:	bc 43 00 54 	l.sfgtui r3,0x54
    41e0:	03 ff ff b6 	l.j 40b8 <__free_r+0x188>
    41e4:	9c a3 00 5b 	l.addi r5,r3,0x5b
    41e8:	10 00 00 05 	l.bf 41fc <__free_r+0x2cc>
    41ec:	bc 43 01 54 	l.sfgtui r3,0x154
    41f0:	b8 67 00 4c 	l.srli r3,r7,0xc
    41f4:	03 ff ff b1 	l.j 40b8 <__free_r+0x188>
    41f8:	9c a3 00 6e 	l.addi r5,r3,0x6e
    41fc:	10 00 00 05 	l.bf 4210 <__free_r+0x2e0>
    4200:	bc 43 05 54 	l.sfgtui r3,0x554
    4204:	b8 67 00 4f 	l.srli r3,r7,0xf
    4208:	03 ff ff ac 	l.j 40b8 <__free_r+0x188>
    420c:	9c a3 00 77 	l.addi r5,r3,0x77
    4210:	10 00 00 04 	l.bf 4220 <__free_r+0x2f0>
    4214:	b8 67 00 52 	l.srli r3,r7,0x12
    4218:	03 ff ff a8 	l.j 40b8 <__free_r+0x188>
    421c:	9c a3 00 7c 	l.addi r5,r3,0x7c
    4220:	03 ff ff a6 	l.j 40b8 <__free_r+0x188>
    4224:	9c a0 00 7e 	l.addi r5,r0,0x7e
    4228:	85 21 00 00 	l.lwz r9,0x0(r1)
    422c:	84 41 00 04 	l.lwz r2,0x4(r1)
    4230:	85 41 00 08 	l.lwz r10,0x8(r1)
    4234:	85 81 00 0c 	l.lwz r12,0xc(r1)
    4238:	44 00 48 00 	l.jr r9
    423c:	9c 21 00 10 	l.addi r1,r1,0x10

00004240 <_isinf>:
    4240:	9c 21 ff fc 	l.addi r1,r1,0xfffffffc
    4244:	d4 01 10 00 	l.sw 0x0(r1),r2
    4248:	9c 41 00 04 	l.addi r2,r1,0x4
    424c:	18 e0 7f ff 	l.movhi r7,0x7fff
    4250:	a8 e7 ff ff 	l.ori r7,r7,0xffff
    4254:	e0 c0 20 02 	l.sub r6,r0,r4
    4258:	e0 a3 38 03 	l.and r5,r3,r7
    425c:	9d 60 00 01 	l.addi r11,r0,0x1
    4260:	e0 66 20 04 	l.or r3,r6,r4
    4264:	b8 63 00 5f 	l.srli r3,r3,0x1f
    4268:	e0 a5 18 04 	l.or r5,r5,r3
    426c:	18 60 7f f0 	l.movhi r3,0x7ff0
    4270:	a8 63 00 00 	l.ori r3,r3,0x0
    4274:	e0 a3 28 02 	l.sub r5,r3,r5
    4278:	e0 60 28 02 	l.sub r3,r0,r5
    427c:	e0 63 28 04 	l.or r3,r3,r5
    4280:	b8 63 00 5f 	l.srli r3,r3,0x1f
    4284:	e1 6b 18 02 	l.sub r11,r11,r3
    4288:	84 41 00 00 	l.lwz r2,0x0(r1)
    428c:	44 00 48 00 	l.jr r9
    4290:	9c 21 00 04 	l.addi r1,r1,0x4

00004294 <_memset>:
    4294:	9c 21 ff fc 	l.addi r1,r1,0xfffffffc
    4298:	d4 01 10 00 	l.sw 0x0(r1),r2
    429c:	9c 41 00 04 	l.addi r2,r1,0x4
    42a0:	a4 84 00 ff 	l.andi r4,r4,0xff
    42a4:	bc a5 00 03 	l.sfleui r5,0x3
    42a8:	10 00 00 06 	l.bf 42c0 <_memset+0x2c>
    42ac:	a8 c3 00 00 	l.ori r6,r3,0x0
    42b0:	a4 e3 00 03 	l.andi r7,r3,0x3
    42b4:	bc 27 00 00 	l.sfnei r7,0x0
    42b8:	0c 00 00 0c 	l.bnf 42e8 <_memset+0x54>
    42bc:	b8 e4 00 08 	l.slli r7,r4,0x8
    42c0:	00 00 00 05 	l.j 42d4 <_memset+0x40>
    42c4:	9c a5 ff ff 	l.addi r5,r5,0xffffffff
    42c8:	d8 06 20 00 	l.sb 0x0(r6),r4
    42cc:	9c a5 ff ff 	l.addi r5,r5,0xffffffff
    42d0:	9c c6 00 01 	l.addi r6,r6,0x1
    42d4:	bc 05 ff ff 	l.sfeqi r5,0xffffffff
    42d8:	0f ff ff fc 	l.bnf 42c8 <_memset+0x34>
    42dc:	a9 63 00 00 	l.ori r11,r3,0x0
    42e0:	00 00 00 1b 	l.j 434c <_memset+0xb8>
    42e4:	15 00 00 00 	l.nop 0x0
    42e8:	e0 e7 20 04 	l.or r7,r7,r4
    42ec:	b9 07 00 10 	l.slli r8,r7,0x10
    42f0:	e0 e7 40 04 	l.or r7,r7,r8
    42f4:	bc a5 00 0f 	l.sfleui r5,0xf
    42f8:	10 00 00 10 	l.bf 4338 <_memset+0xa4>
    42fc:	15 00 00 00 	l.nop 0x0
    4300:	d4 06 38 00 	l.sw 0x0(r6),r7
    4304:	9c a5 ff f0 	l.addi r5,r5,0xfffffff0
    4308:	9c c6 00 04 	l.addi r6,r6,0x4
    430c:	bc a5 00 0f 	l.sfleui r5,0xf
    4310:	d4 06 38 00 	l.sw 0x0(r6),r7
    4314:	9c c6 00 04 	l.addi r6,r6,0x4
    4318:	d4 06 38 00 	l.sw 0x0(r6),r7
    431c:	9c c6 00 04 	l.addi r6,r6,0x4
    4320:	d4 06 38 00 	l.sw 0x0(r6),r7
    4324:	03 ff ff f5 	l.j 42f8 <_memset+0x64>
    4328:	9c c6 00 04 	l.addi r6,r6,0x4
    432c:	d4 06 38 00 	l.sw 0x0(r6),r7
    4330:	9c a5 ff fc 	l.addi r5,r5,0xfffffffc
    4334:	9c c6 00 04 	l.addi r6,r6,0x4
    4338:	bc a5 00 03 	l.sfleui r5,0x3
    433c:	0f ff ff fc 	l.bnf 432c <_memset+0x98>
    4340:	15 00 00 00 	l.nop 0x0
    4344:	03 ff ff e4 	l.j 42d4 <_memset+0x40>
    4348:	9c a5 ff ff 	l.addi r5,r5,0xffffffff
    434c:	84 41 00 00 	l.lwz r2,0x0(r1)
    4350:	44 00 48 00 	l.jr r9
    4354:	9c 21 00 04 	l.addi r1,r1,0x4

00004358 <__wcrtomb_r>:
    4358:	9c 21 ff e4 	l.addi r1,r1,0xffffffe4
    435c:	d4 01 10 04 	l.sw 0x4(r1),r2
    4360:	9c 41 00 1c 	l.addi r2,r1,0x1c
    4364:	d4 01 48 00 	l.sw 0x0(r1),r9
    4368:	d4 01 50 08 	l.sw 0x8(r1),r10
    436c:	d4 01 60 0c 	l.sw 0xc(r1),r12
    4370:	bc 24 00 00 	l.sfnei r4,0x0
    4374:	a9 83 00 00 	l.ori r12,r3,0x0
    4378:	a9 46 00 00 	l.ori r10,r6,0x0
    437c:	10 00 00 04 	l.bf 438c <__wcrtomb_r+0x34>
    4380:	9d 60 00 00 	l.addi r11,r0,0x0
    4384:	a8 ab 00 00 	l.ori r5,r11,0x0
    4388:	9c 82 ff f4 	l.addi r4,r2,0xfffffff4
    438c:	04 00 0d ed 	l.jal 7b40 <__wctomb_r>
    4390:	15 00 00 00 	l.nop 0x0
    4394:	bc 2b ff ff 	l.sfnei r11,0xffffffff
    4398:	0c 00 00 04 	l.bnf 43a8 <__wcrtomb_r+0x50>
    439c:	9c 60 ff ff 	l.addi r3,r0,0xffffffff
    43a0:	00 00 00 06 	l.j 43b8 <__wcrtomb_r+0x60>
    43a4:	a8 6b 00 00 	l.ori r3,r11,0x0
    43a8:	9c 80 00 00 	l.addi r4,r0,0x0
    43ac:	d4 0a 20 00 	l.sw 0x0(r10),r4
    43b0:	9c 80 00 8a 	l.addi r4,r0,0x8a
    43b4:	d4 0c 20 00 	l.sw 0x0(r12),r4
    43b8:	a9 63 00 00 	l.ori r11,r3,0x0
    43bc:	85 21 00 00 	l.lwz r9,0x0(r1)
    43c0:	84 41 00 04 	l.lwz r2,0x4(r1)
    43c4:	85 41 00 08 	l.lwz r10,0x8(r1)
    43c8:	85 81 00 0c 	l.lwz r12,0xc(r1)
    43cc:	44 00 48 00 	l.jr r9
    43d0:	9c 21 00 1c 	l.addi r1,r1,0x1c

000043d4 <_wcrtomb>:
    43d4:	9c 21 ff f8 	l.addi r1,r1,0xfffffff8
    43d8:	d4 01 10 04 	l.sw 0x4(r1),r2
    43dc:	9c 41 00 08 	l.addi r2,r1,0x8
    43e0:	d4 01 48 00 	l.sw 0x0(r1),r9
    43e4:	a9 03 00 00 	l.ori r8,r3,0x0
    43e8:	a8 e4 00 00 	l.ori r7,r4,0x0
    43ec:	18 60 00 00 	l.movhi r3,0x0
    43f0:	a8 63 f3 cc 	l.ori r3,r3,0xf3cc
    43f4:	a8 c5 00 00 	l.ori r6,r5,0x0
    43f8:	84 63 00 00 	l.lwz r3,0x0(r3)
    43fc:	a8 88 00 00 	l.ori r4,r8,0x0
    4400:	07 ff ff d6 	l.jal 4358 <__wcrtomb_r>
    4404:	a8 a7 00 00 	l.ori r5,r7,0x0
    4408:	85 21 00 00 	l.lwz r9,0x0(r1)
    440c:	84 41 00 04 	l.lwz r2,0x4(r1)
    4410:	44 00 48 00 	l.jr r9
    4414:	9c 21 00 08 	l.addi r1,r1,0x8

00004418 <_isnan>:
    4418:	9c 21 ff fc 	l.addi r1,r1,0xfffffffc
    441c:	d4 01 10 00 	l.sw 0x0(r1),r2
    4420:	9c 41 00 04 	l.addi r2,r1,0x4
    4424:	18 c0 7f ff 	l.movhi r6,0x7fff
    4428:	a8 c6 ff ff 	l.ori r6,r6,0xffff
    442c:	e0 a0 20 02 	l.sub r5,r0,r4
    4430:	e1 63 30 03 	l.and r11,r3,r6
    4434:	e0 65 20 04 	l.or r3,r5,r4
    4438:	b8 63 00 5f 	l.srli r3,r3,0x1f
    443c:	e1 6b 18 04 	l.or r11,r11,r3
    4440:	18 60 7f f0 	l.movhi r3,0x7ff0
    4444:	a8 63 00 00 	l.ori r3,r3,0x0
    4448:	e1 63 58 02 	l.sub r11,r3,r11
    444c:	b9 6b 00 5f 	l.srli r11,r11,0x1f
    4450:	84 41 00 00 	l.lwz r2,0x0(r1)
    4454:	44 00 48 00 	l.jr r9
    4458:	9c 21 00 04 	l.addi r1,r1,0x4

0000445c <__malloc_r>:
    445c:	9c 21 ff cc 	l.addi r1,r1,0xffffffcc
    4460:	d4 01 10 04 	l.sw 0x4(r1),r2
    4464:	9c 41 00 34 	l.addi r2,r1,0x34
    4468:	d4 01 48 00 	l.sw 0x0(r1),r9
    446c:	d4 01 50 08 	l.sw 0x8(r1),r10
    4470:	d4 01 60 0c 	l.sw 0xc(r1),r12
    4474:	d4 01 70 10 	l.sw 0x10(r1),r14
    4478:	d4 01 80 14 	l.sw 0x14(r1),r16
    447c:	d4 01 90 18 	l.sw 0x18(r1),r18
    4480:	d4 01 a0 1c 	l.sw 0x1c(r1),r20
    4484:	d4 01 b0 20 	l.sw 0x20(r1),r22
    4488:	d4 01 c0 24 	l.sw 0x24(r1),r24
    448c:	d4 01 d0 28 	l.sw 0x28(r1),r26
    4490:	d4 01 e0 2c 	l.sw 0x2c(r1),r28
    4494:	d4 01 f0 30 	l.sw 0x30(r1),r30
    4498:	ab 03 00 00 	l.ori r24,r3,0x0
    449c:	9c 64 00 0b 	l.addi r3,r4,0xb
    44a0:	bc a3 00 16 	l.sfleui r3,0x16
    44a4:	10 00 00 04 	l.bf 44b4 <__malloc_r+0x58>
    44a8:	9d 80 00 10 	l.addi r12,r0,0x10
    44ac:	9c a0 ff f8 	l.addi r5,r0,0xfffffff8
    44b0:	e1 83 28 03 	l.and r12,r3,r5
    44b4:	9c a0 00 00 	l.addi r5,r0,0x0
    44b8:	e5 6c 28 00 	l.sfges r12,r5
    44bc:	10 00 00 03 	l.bf 44c8 <__malloc_r+0x6c>
    44c0:	e4 6c 20 00 	l.sfgeu r12,r4
    44c4:	9c a0 00 01 	l.addi r5,r0,0x1
    44c8:	10 00 00 03 	l.bf 44d4 <__malloc_r+0x78>
    44cc:	9c 60 00 00 	l.addi r3,r0,0x0
    44d0:	9c 60 00 01 	l.addi r3,r0,0x1
    44d4:	e0 65 18 04 	l.or r3,r5,r3
    44d8:	bc 03 00 00 	l.sfeqi r3,0x0
    44dc:	0c 00 01 f6 	l.bnf 4cb4 <__malloc_r+0x858>
    44e0:	9d 60 00 00 	l.addi r11,r0,0x0
    44e4:	04 00 0d 70 	l.jal 7aa4 <___malloc_lock>
    44e8:	a8 78 00 00 	l.ori r3,r24,0x0
    44ec:	bc 4c 01 f7 	l.sfgtui r12,0x1f7
    44f0:	10 00 00 87 	l.bf 470c <__malloc_r+0x2b0>
    44f4:	15 00 00 00 	l.nop 0x0
    44f8:	19 a0 00 00 	l.movhi r13,0x0
    44fc:	a9 ad f4 2c 	l.ori r13,r13,0xf42c
    4500:	e0 cc 68 00 	l.add r6,r12,r13
    4504:	85 46 00 0c 	l.lwz r10,0xc(r6)
    4508:	e4 2a 30 00 	l.sfne r10,r6
    450c:	0c 00 00 de 	l.bnf 4884 <__malloc_r+0x428>
    4510:	b9 0c 00 43 	l.srli r8,r12,0x3
    4514:	e4 0a 30 00 	l.sfeq r10,r6
    4518:	0c 00 00 e0 	l.bnf 4898 <__malloc_r+0x43c>
    451c:	9d 08 00 02 	l.addi r8,r8,0x2
    4520:	19 60 00 00 	l.movhi r11,0x0
    4524:	a9 6b f4 34 	l.ori r11,r11,0xf434
    4528:	85 4b 00 08 	l.lwz r10,0x8(r11)
    452c:	e4 0a 58 00 	l.sfeq r10,r11
    4530:	10 00 00 20 	l.bf 45b0 <__malloc_r+0x154>
    4534:	b8 68 00 9f 	l.srai r3,r8,0x1f
    4538:	84 6a 00 04 	l.lwz r3,0x4(r10)
    453c:	9d a0 ff fc 	l.addi r13,r0,0xfffffffc
    4540:	e0 a3 68 03 	l.and r5,r3,r13
    4544:	e0 65 60 02 	l.sub r3,r5,r12
    4548:	bd a3 00 0f 	l.sflesi r3,0xf
    454c:	0c 00 01 38 	l.bnf 4a2c <__malloc_r+0x5d0>
    4550:	bd 83 00 00 	l.sfltsi r3,0x0
    4554:	d4 0b 58 0c 	l.sw 0xc(r11),r11
    4558:	0c 00 01 5d 	l.bnf 4acc <__malloc_r+0x670>
    455c:	d4 0b 58 08 	l.sw 0x8(r11),r11
    4560:	bc 45 01 ff 	l.sfgtui r5,0x1ff
    4564:	10 00 01 3f 	l.bf 4a60 <__malloc_r+0x604>
    4568:	b8 65 00 49 	l.srli r3,r5,0x9
    456c:	b8 85 00 43 	l.srli r4,r5,0x3
    4570:	1b c0 00 00 	l.movhi r30,0x0
    4574:	ab de f4 2c 	l.ori r30,r30,0xf42c
    4578:	b8 64 00 03 	l.slli r3,r4,0x3
    457c:	84 be 00 04 	l.lwz r5,0x4(r30)
    4580:	e0 e3 f0 00 	l.add r7,r3,r30
    4584:	b8 84 00 42 	l.srli r4,r4,0x2
    4588:	9c 60 00 01 	l.addi r3,r0,0x1
    458c:	84 c7 00 08 	l.lwz r6,0x8(r7)
    4590:	e0 63 20 08 	l.sll r3,r3,r4
    4594:	d4 0a 38 0c 	l.sw 0xc(r10),r7
    4598:	e0 65 18 04 	l.or r3,r5,r3
    459c:	d4 0a 30 08 	l.sw 0x8(r10),r6
    45a0:	d4 1e 18 04 	l.sw 0x4(r30),r3
    45a4:	d4 06 50 0c 	l.sw 0xc(r6),r10
    45a8:	d4 07 50 08 	l.sw 0x8(r7),r10
    45ac:	b8 68 00 9f 	l.srai r3,r8,0x1f
    45b0:	1b c0 00 00 	l.movhi r30,0x0
    45b4:	ab de f4 2c 	l.ori r30,r30,0xf42c
    45b8:	9c 80 00 01 	l.addi r4,r0,0x1
    45bc:	b8 63 00 5e 	l.srli r3,r3,0x1e
    45c0:	84 be 00 04 	l.lwz r5,0x4(r30)
    45c4:	e0 68 18 00 	l.add r3,r8,r3
    45c8:	b8 63 00 82 	l.srai r3,r3,0x2
    45cc:	e0 e4 18 08 	l.sll r7,r4,r3
    45d0:	e4 47 28 00 	l.sfgtu r7,r5
    45d4:	10 00 00 be 	l.bf 48cc <__malloc_r+0x470>
    45d8:	15 00 00 00 	l.nop 0x0
    45dc:	e0 65 38 03 	l.and r3,r5,r7
    45e0:	bc 23 00 00 	l.sfnei r3,0x0
    45e4:	10 00 00 0f 	l.bf 4620 <__malloc_r+0x1c4>
    45e8:	b8 68 00 03 	l.slli r3,r8,0x3
    45ec:	e0 e7 20 08 	l.sll r7,r7,r4
    45f0:	9c c0 ff fc 	l.addi r6,r0,0xfffffffc
    45f4:	e0 85 38 03 	l.and r4,r5,r7
    45f8:	e0 68 30 03 	l.and r3,r8,r6
    45fc:	bc 24 00 00 	l.sfnei r4,0x0
    4600:	10 00 00 07 	l.bf 461c <__malloc_r+0x1c0>
    4604:	9d 03 00 04 	l.addi r8,r3,0x4
    4608:	b8 e7 00 01 	l.slli r7,r7,0x1
    460c:	e0 65 38 03 	l.and r3,r5,r7
    4610:	bc 23 00 00 	l.sfnei r3,0x0
    4614:	0f ff ff fd 	l.bnf 4608 <__malloc_r+0x1ac>
    4618:	9d 08 00 04 	l.addi r8,r8,0x4
    461c:	b8 68 00 03 	l.slli r3,r8,0x3
    4620:	19 a0 00 00 	l.movhi r13,0x0
    4624:	a9 ad f4 2c 	l.ori r13,r13,0xf42c
    4628:	a9 28 00 00 	l.ori r9,r8,0x0
    462c:	e0 c3 68 00 	l.add r6,r3,r13
    4630:	a8 86 00 00 	l.ori r4,r6,0x0
    4634:	85 44 00 0c 	l.lwz r10,0xc(r4)
    4638:	e4 0a 20 00 	l.sfeq r10,r4
    463c:	10 00 00 0f 	l.bf 4678 <__malloc_r+0x21c>
    4640:	15 00 00 00 	l.nop 0x0
    4644:	84 6a 00 04 	l.lwz r3,0x4(r10)
    4648:	9d a0 ff fc 	l.addi r13,r0,0xfffffffc
    464c:	e0 a3 68 03 	l.and r5,r3,r13
    4650:	e0 65 60 02 	l.sub r3,r5,r12
    4654:	bd a3 00 0f 	l.sflesi r3,0xf
    4658:	0c 00 01 38 	l.bnf 4b38 <__malloc_r+0x6dc>
    465c:	bd 83 00 00 	l.sfltsi r3,0x0
    4660:	0c 00 01 32 	l.bnf 4b28 <__malloc_r+0x6cc>
    4664:	15 00 00 00 	l.nop 0x0
    4668:	85 4a 00 0c 	l.lwz r10,0xc(r10)
    466c:	e4 0a 20 00 	l.sfeq r10,r4
    4670:	0f ff ff f5 	l.bnf 4644 <__malloc_r+0x1e8>
    4674:	15 00 00 00 	l.nop 0x0
    4678:	9d 08 00 01 	l.addi r8,r8,0x1
    467c:	a4 68 00 03 	l.andi r3,r8,0x3
    4680:	bc 03 00 00 	l.sfeqi r3,0x0
    4684:	0f ff ff ec 	l.bnf 4634 <__malloc_r+0x1d8>
    4688:	9c 84 00 08 	l.addi r4,r4,0x8
    468c:	a4 69 00 03 	l.andi r3,r9,0x3
    4690:	9c c6 ff f8 	l.addi r6,r6,0xfffffff8
    4694:	bc 23 00 00 	l.sfnei r3,0x0
    4698:	0c 00 01 50 	l.bnf 4bd8 <__malloc_r+0x77c>
    469c:	9d 29 ff ff 	l.addi r9,r9,0xffffffff
    46a0:	84 66 00 08 	l.lwz r3,0x8(r6)
    46a4:	e4 23 30 00 	l.sfne r3,r6
    46a8:	0f ff ff fa 	l.bnf 4690 <__malloc_r+0x234>
    46ac:	a4 69 00 03 	l.andi r3,r9,0x3
    46b0:	1b c0 00 00 	l.movhi r30,0x0
    46b4:	ab de f4 2c 	l.ori r30,r30,0xf42c
    46b8:	b8 e7 00 01 	l.slli r7,r7,0x1
    46bc:	84 9e 00 04 	l.lwz r4,0x4(r30)
    46c0:	e4 47 20 00 	l.sfgtu r7,r4
    46c4:	10 00 00 82 	l.bf 48cc <__malloc_r+0x470>
    46c8:	bc 07 00 00 	l.sfeqi r7,0x0
    46cc:	0c 00 00 06 	l.bnf 46e4 <__malloc_r+0x288>
    46d0:	15 00 00 00 	l.nop 0x0
    46d4:	00 00 00 7f 	l.j 48d0 <__malloc_r+0x474>
    46d8:	86 5e 00 08 	l.lwz r18,0x8(r30)
    46dc:	b8 e7 00 01 	l.slli r7,r7,0x1
    46e0:	9d 08 00 04 	l.addi r8,r8,0x4
    46e4:	e0 64 38 03 	l.and r3,r4,r7
    46e8:	bc 23 00 00 	l.sfnei r3,0x0
    46ec:	0f ff ff fc 	l.bnf 46dc <__malloc_r+0x280>
    46f0:	b8 68 00 03 	l.slli r3,r8,0x3
    46f4:	19 a0 00 00 	l.movhi r13,0x0
    46f8:	a9 ad f4 2c 	l.ori r13,r13,0xf42c
    46fc:	a9 28 00 00 	l.ori r9,r8,0x0
    4700:	e0 c3 68 00 	l.add r6,r3,r13
    4704:	03 ff ff cc 	l.j 4634 <__malloc_r+0x1d8>
    4708:	a8 86 00 00 	l.ori r4,r6,0x0
    470c:	b8 6c 00 49 	l.srli r3,r12,0x9
    4710:	bc 23 00 00 	l.sfnei r3,0x0
    4714:	0c 00 00 07 	l.bnf 4730 <__malloc_r+0x2d4>
    4718:	b9 0c 00 43 	l.srli r8,r12,0x3
    471c:	bc 43 00 04 	l.sfgtui r3,0x4
    4720:	10 00 00 bf 	l.bf 4a1c <__malloc_r+0x5c0>
    4724:	bc 43 00 14 	l.sfgtui r3,0x14
    4728:	b8 6c 00 46 	l.srli r3,r12,0x6
    472c:	9d 03 00 38 	l.addi r8,r3,0x38
    4730:	b8 68 00 03 	l.slli r3,r8,0x3
    4734:	19 a0 00 00 	l.movhi r13,0x0
    4738:	a9 ad f4 2c 	l.ori r13,r13,0xf42c
    473c:	e0 83 68 00 	l.add r4,r3,r13
    4740:	85 44 00 0c 	l.lwz r10,0xc(r4)
    4744:	e4 0a 20 00 	l.sfeq r10,r4
    4748:	10 00 00 0f 	l.bf 4784 <__malloc_r+0x328>
    474c:	15 00 00 00 	l.nop 0x0
    4750:	84 6a 00 04 	l.lwz r3,0x4(r10)
    4754:	9c c0 ff fc 	l.addi r6,r0,0xfffffffc
    4758:	e0 a3 30 03 	l.and r5,r3,r6
    475c:	e0 65 60 02 	l.sub r3,r5,r12
    4760:	bd a3 00 0f 	l.sflesi r3,0xf
    4764:	0c 00 01 08 	l.bnf 4b84 <__malloc_r+0x728>
    4768:	bd 83 00 00 	l.sfltsi r3,0x0
    476c:	0c 00 00 ef 	l.bnf 4b28 <__malloc_r+0x6cc>
    4770:	15 00 00 00 	l.nop 0x0
    4774:	85 4a 00 0c 	l.lwz r10,0xc(r10)
    4778:	e4 0a 20 00 	l.sfeq r10,r4
    477c:	0f ff ff f5 	l.bnf 4750 <__malloc_r+0x2f4>
    4780:	15 00 00 00 	l.nop 0x0
    4784:	03 ff ff 67 	l.j 4520 <__malloc_r+0xc4>
    4788:	9d 08 00 01 	l.addi r8,r8,0x1
    478c:	84 7a 00 00 	l.lwz r3,0x0(r26)
    4790:	bc 23 ff ff 	l.sfnei r3,0xffffffff
    4794:	10 00 01 16 	l.bf 4bec <__malloc_r+0x790>
    4798:	e0 6a 70 02 	l.sub r3,r10,r14
    479c:	d4 1a 50 00 	l.sw 0x0(r26),r10
    47a0:	a4 8a 00 07 	l.andi r4,r10,0x7
    47a4:	bc 04 00 00 	l.sfeqi r4,0x0
    47a8:	10 00 00 05 	l.bf 47bc <__malloc_r+0x360>
    47ac:	9d c0 00 00 	l.addi r14,r0,0x0
    47b0:	9c 60 00 08 	l.addi r3,r0,0x8
    47b4:	e1 c3 20 02 	l.sub r14,r3,r4
    47b8:	e1 4a 70 00 	l.add r10,r10,r14
    47bc:	e0 8a 80 00 	l.add r4,r10,r16
    47c0:	9c a0 10 00 	l.addi r5,r0,0x1000
    47c4:	a4 84 0f ff 	l.andi r4,r4,0xfff
    47c8:	a8 78 00 00 	l.ori r3,r24,0x0
    47cc:	e0 85 20 02 	l.sub r4,r5,r4
    47d0:	e1 ce 20 00 	l.add r14,r14,r4
    47d4:	04 00 0c c0 	l.jal 7ad4 <__sbrk_r>
    47d8:	a8 8e 00 00 	l.ori r4,r14,0x0
    47dc:	bc 2b ff ff 	l.sfnei r11,0xffffffff
    47e0:	10 00 00 04 	l.bf 47f0 <__malloc_r+0x394>
    47e4:	15 00 00 00 	l.nop 0x0
    47e8:	9d c0 00 00 	l.addi r14,r0,0x0
    47ec:	a9 6a 00 00 	l.ori r11,r10,0x0
    47f0:	e0 8b 50 02 	l.sub r4,r11,r10
    47f4:	84 7c 00 00 	l.lwz r3,0x0(r28)
    47f8:	e1 64 70 00 	l.add r11,r4,r14
    47fc:	19 a0 00 00 	l.movhi r13,0x0
    4800:	a9 ad f4 2c 	l.ori r13,r13,0xf42c
    4804:	e0 83 70 00 	l.add r4,r3,r14
    4808:	e4 12 68 00 	l.sfeq r18,r13
    480c:	d4 1c 20 00 	l.sw 0x0(r28),r4
    4810:	d4 1e 50 08 	l.sw 0x8(r30),r10
    4814:	10 00 00 fa 	l.bf 4bfc <__malloc_r+0x7a0>
    4818:	a8 8b 00 01 	l.ori r4,r11,0x1
    481c:	bc 56 00 0f 	l.sfgtui r22,0xf
    4820:	10 00 01 01 	l.bf 4c24 <__malloc_r+0x7c8>
    4824:	9c a0 ff f8 	l.addi r5,r0,0xfffffff8
    4828:	9c 60 00 01 	l.addi r3,r0,0x1
    482c:	d4 0a 18 04 	l.sw 0x4(r10),r3
    4830:	84 7e 00 08 	l.lwz r3,0x8(r30)
    4834:	9c c0 ff fc 	l.addi r6,r0,0xfffffffc
    4838:	9c a0 00 00 	l.addi r5,r0,0x0
    483c:	84 63 00 04 	l.lwz r3,0x4(r3)
    4840:	e0 63 30 03 	l.and r3,r3,r6
    4844:	e4 63 60 00 	l.sfgeu r3,r12
    4848:	10 00 00 03 	l.bf 4854 <__malloc_r+0x3f8>
    484c:	e0 63 60 02 	l.sub r3,r3,r12
    4850:	9c a0 00 01 	l.addi r5,r0,0x1
    4854:	bd 43 00 0f 	l.sfgtsi r3,0xf
    4858:	10 00 00 03 	l.bf 4864 <__malloc_r+0x408>
    485c:	9c 80 00 00 	l.addi r4,r0,0x0
    4860:	9c 80 00 01 	l.addi r4,r0,0x1
    4864:	e0 85 20 04 	l.or r4,r5,r4
    4868:	bc 04 00 00 	l.sfeqi r4,0x0
    486c:	10 00 00 60 	l.bf 49ec <__malloc_r+0x590>
    4870:	15 00 00 00 	l.nop 0x0
    4874:	04 00 0c 92 	l.jal 7abc <___malloc_unlock>
    4878:	a8 78 00 00 	l.ori r3,r24,0x0
    487c:	00 00 01 0e 	l.j 4cb4 <__malloc_r+0x858>
    4880:	9d 60 00 00 	l.addi r11,r0,0x0
    4884:	9c c6 00 08 	l.addi r6,r6,0x8
    4888:	85 46 00 0c 	l.lwz r10,0xc(r6)
    488c:	e4 0a 30 00 	l.sfeq r10,r6
    4890:	13 ff ff 24 	l.bf 4520 <__malloc_r+0xc4>
    4894:	9d 08 00 02 	l.addi r8,r8,0x2
    4898:	84 8a 00 04 	l.lwz r4,0x4(r10)
    489c:	9c c0 ff fc 	l.addi r6,r0,0xfffffffc
    48a0:	a8 78 00 00 	l.ori r3,r24,0x0
    48a4:	e0 a4 30 03 	l.and r5,r4,r6
    48a8:	84 ea 00 0c 	l.lwz r7,0xc(r10)
    48ac:	e0 aa 28 00 	l.add r5,r10,r5
    48b0:	84 85 00 04 	l.lwz r4,0x4(r5)
    48b4:	84 ca 00 08 	l.lwz r6,0x8(r10)
    48b8:	a8 84 00 01 	l.ori r4,r4,0x1
    48bc:	d4 07 30 08 	l.sw 0x8(r7),r6
    48c0:	d4 05 20 04 	l.sw 0x4(r5),r4
    48c4:	00 00 00 52 	l.j 4a0c <__malloc_r+0x5b0>
    48c8:	d4 06 38 0c 	l.sw 0xc(r6),r7
    48cc:	86 5e 00 08 	l.lwz r18,0x8(r30)
    48d0:	9c 80 ff fc 	l.addi r4,r0,0xfffffffc
    48d4:	9c a0 00 00 	l.addi r5,r0,0x0
    48d8:	84 72 00 04 	l.lwz r3,0x4(r18)
    48dc:	e2 c3 20 03 	l.and r22,r3,r4
    48e0:	e4 76 60 00 	l.sfgeu r22,r12
    48e4:	10 00 00 03 	l.bf 48f0 <__malloc_r+0x494>
    48e8:	e0 76 60 02 	l.sub r3,r22,r12
    48ec:	9c a0 00 01 	l.addi r5,r0,0x1
    48f0:	bd 43 00 0f 	l.sfgtsi r3,0xf
    48f4:	10 00 00 03 	l.bf 4900 <__malloc_r+0x4a4>
    48f8:	9c 80 00 00 	l.addi r4,r0,0x0
    48fc:	9c 80 00 01 	l.addi r4,r0,0x1
    4900:	e0 85 20 04 	l.or r4,r5,r4
    4904:	bc 04 00 00 	l.sfeqi r4,0x0
    4908:	10 00 00 39 	l.bf 49ec <__malloc_r+0x590>
    490c:	aa 96 00 00 	l.ori r20,r22,0x0
    4910:	18 60 00 00 	l.movhi r3,0x0
    4914:	a8 63 f4 24 	l.ori r3,r3,0xf424
    4918:	1b 40 00 00 	l.movhi r26,0x0
    491c:	ab 5a f4 20 	l.ori r26,r26,0xf420
    4920:	84 63 00 00 	l.lwz r3,0x0(r3)
    4924:	e1 d2 b0 00 	l.add r14,r18,r22
    4928:	84 9a 00 00 	l.lwz r4,0x0(r26)
    492c:	e0 6c 18 00 	l.add r3,r12,r3
    4930:	bc 04 ff ff 	l.sfeqi r4,0xffffffff
    4934:	10 00 00 05 	l.bf 4948 <__malloc_r+0x4ec>
    4938:	9e 03 00 10 	l.addi r16,r3,0x10
    493c:	9c 83 10 0f 	l.addi r4,r3,0x100f
    4940:	9c a0 f0 00 	l.addi r5,r0,0xfffff000
    4944:	e2 04 28 03 	l.and r16,r4,r5
    4948:	a8 78 00 00 	l.ori r3,r24,0x0
    494c:	04 00 0c 62 	l.jal 7ad4 <__sbrk_r>
    4950:	a8 90 00 00 	l.ori r4,r16,0x0
    4954:	bc 0b ff ff 	l.sfeqi r11,0xffffffff
    4958:	13 ff ff b6 	l.bf 4830 <__malloc_r+0x3d4>
    495c:	a9 4b 00 00 	l.ori r10,r11,0x0
    4960:	e4 6b 70 00 	l.sfgeu r11,r14
    4964:	0c 00 00 67 	l.bnf 4b00 <__malloc_r+0x6a4>
    4968:	15 00 00 00 	l.nop 0x0
    496c:	1b 80 00 00 	l.movhi r28,0x0
    4970:	ab 9c f3 f0 	l.ori r28,r28,0xf3f0
    4974:	e4 2a 70 00 	l.sfne r10,r14
    4978:	84 7c 00 00 	l.lwz r3,0x0(r28)
    497c:	e0 63 80 00 	l.add r3,r3,r16
    4980:	13 ff ff 83 	l.bf 478c <__malloc_r+0x330>
    4984:	d4 1c 18 00 	l.sw 0x0(r28),r3
    4988:	a4 6e 0f ff 	l.andi r3,r14,0xfff
    498c:	bc 23 00 00 	l.sfnei r3,0x0
    4990:	13 ff ff 7f 	l.bf 478c <__malloc_r+0x330>
    4994:	e1 70 a0 00 	l.add r11,r16,r20
    4998:	18 60 00 00 	l.movhi r3,0x0
    499c:	a8 63 f4 2c 	l.ori r3,r3,0xf42c
    49a0:	84 63 00 08 	l.lwz r3,0x8(r3)
    49a4:	a8 8b 00 01 	l.ori r4,r11,0x1
    49a8:	d4 03 20 04 	l.sw 0x4(r3),r4
    49ac:	18 80 00 00 	l.movhi r4,0x0
    49b0:	a8 84 f4 1c 	l.ori r4,r4,0xf41c
    49b4:	84 7c 00 00 	l.lwz r3,0x0(r28)
    49b8:	85 a4 00 00 	l.lwz r13,0x0(r4)
    49bc:	e4 a3 68 00 	l.sfleu r3,r13
    49c0:	10 00 00 03 	l.bf 49cc <__malloc_r+0x570>
    49c4:	15 00 00 00 	l.nop 0x0
    49c8:	d4 04 18 00 	l.sw 0x0(r4),r3
    49cc:	18 80 00 00 	l.movhi r4,0x0
    49d0:	a8 84 f4 18 	l.ori r4,r4,0xf418
    49d4:	84 a4 00 00 	l.lwz r5,0x0(r4)
    49d8:	e4 a3 28 00 	l.sfleu r3,r5
    49dc:	13 ff ff 95 	l.bf 4830 <__malloc_r+0x3d4>
    49e0:	15 00 00 00 	l.nop 0x0
    49e4:	03 ff ff 93 	l.j 4830 <__malloc_r+0x3d4>
    49e8:	d4 04 18 00 	l.sw 0x0(r4),r3
    49ec:	85 5e 00 08 	l.lwz r10,0x8(r30)
    49f0:	a8 8c 00 01 	l.ori r4,r12,0x1
    49f4:	a8 a3 00 01 	l.ori r5,r3,0x1
    49f8:	d4 0a 20 04 	l.sw 0x4(r10),r4
    49fc:	a8 78 00 00 	l.ori r3,r24,0x0
    4a00:	e0 8a 60 00 	l.add r4,r10,r12
    4a04:	d4 04 28 04 	l.sw 0x4(r4),r5
    4a08:	d4 1e 20 08 	l.sw 0x8(r30),r4
    4a0c:	04 00 0c 2c 	l.jal 7abc <___malloc_unlock>
    4a10:	15 00 00 00 	l.nop 0x0
    4a14:	00 00 00 a8 	l.j 4cb4 <__malloc_r+0x858>
    4a18:	9d 6a 00 08 	l.addi r11,r10,0x8
    4a1c:	10 00 00 32 	l.bf 4ae4 <__malloc_r+0x688>
    4a20:	bc 43 00 54 	l.sfgtui r3,0x54
    4a24:	03 ff ff 43 	l.j 4730 <__malloc_r+0x2d4>
    4a28:	9d 03 00 5b 	l.addi r8,r3,0x5b
    4a2c:	a8 ac 00 01 	l.ori r5,r12,0x1
    4a30:	e0 8a 60 00 	l.add r4,r10,r12
    4a34:	d4 0a 28 04 	l.sw 0x4(r10),r5
    4a38:	a8 c3 00 01 	l.ori r6,r3,0x1
    4a3c:	e0 a4 18 00 	l.add r5,r4,r3
    4a40:	d4 0b 20 0c 	l.sw 0xc(r11),r4
    4a44:	d4 0b 20 08 	l.sw 0x8(r11),r4
    4a48:	d4 05 18 00 	l.sw 0x0(r5),r3
    4a4c:	d4 04 58 08 	l.sw 0x8(r4),r11
    4a50:	d4 04 30 04 	l.sw 0x4(r4),r6
    4a54:	d4 04 58 0c 	l.sw 0xc(r4),r11
    4a58:	03 ff ff ed 	l.j 4a0c <__malloc_r+0x5b0>
    4a5c:	a8 78 00 00 	l.ori r3,r24,0x0
    4a60:	bc 23 00 00 	l.sfnei r3,0x0
    4a64:	0c 00 00 07 	l.bnf 4a80 <__malloc_r+0x624>
    4a68:	b8 85 00 43 	l.srli r4,r5,0x3
    4a6c:	bc 43 00 04 	l.sfgtui r3,0x4
    4a70:	10 00 00 65 	l.bf 4c04 <__malloc_r+0x7a8>
    4a74:	bc 43 00 14 	l.sfgtui r3,0x14
    4a78:	b8 65 00 46 	l.srli r3,r5,0x6
    4a7c:	9c 83 00 38 	l.addi r4,r3,0x38
    4a80:	b8 64 00 03 	l.slli r3,r4,0x3
    4a84:	18 c0 00 00 	l.movhi r6,0x0
    4a88:	a8 c6 f4 2c 	l.ori r6,r6,0xf42c
    4a8c:	e0 e3 30 00 	l.add r7,r3,r6
    4a90:	84 c7 00 08 	l.lwz r6,0x8(r7)
    4a94:	e4 26 38 00 	l.sfne r6,r7
    4a98:	10 00 00 3e 	l.bf 4b90 <__malloc_r+0x734>
    4a9c:	e4 06 38 00 	l.sfeq r6,r7
    4aa0:	b8 84 00 42 	l.srli r4,r4,0x2
    4aa4:	1b c0 00 00 	l.movhi r30,0x0
    4aa8:	ab de f4 2c 	l.ori r30,r30,0xf42c
    4aac:	9c 60 00 01 	l.addi r3,r0,0x1
    4ab0:	84 be 00 04 	l.lwz r5,0x4(r30)
    4ab4:	e0 63 20 08 	l.sll r3,r3,r4
    4ab8:	e0 65 18 04 	l.or r3,r5,r3
    4abc:	d4 1e 18 04 	l.sw 0x4(r30),r3
    4ac0:	d4 0a 38 0c 	l.sw 0xc(r10),r7
    4ac4:	03 ff fe b8 	l.j 45a4 <__malloc_r+0x148>
    4ac8:	d4 0a 30 08 	l.sw 0x8(r10),r6
    4acc:	e0 aa 28 00 	l.add r5,r10,r5
    4ad0:	a8 78 00 00 	l.ori r3,r24,0x0
    4ad4:	84 85 00 04 	l.lwz r4,0x4(r5)
    4ad8:	a8 84 00 01 	l.ori r4,r4,0x1
    4adc:	03 ff ff cc 	l.j 4a0c <__malloc_r+0x5b0>
    4ae0:	d4 05 20 04 	l.sw 0x4(r5),r4
    4ae4:	0c 00 00 0e 	l.bnf 4b1c <__malloc_r+0x6c0>
    4ae8:	bc 43 01 54 	l.sfgtui r3,0x154
    4aec:	10 00 00 4a 	l.bf 4c14 <__malloc_r+0x7b8>
    4af0:	bc 43 05 54 	l.sfgtui r3,0x554
    4af4:	b8 6c 00 4f 	l.srli r3,r12,0xf
    4af8:	03 ff ff 0e 	l.j 4730 <__malloc_r+0x2d4>
    4afc:	9d 03 00 77 	l.addi r8,r3,0x77
    4b00:	18 c0 00 00 	l.movhi r6,0x0
    4b04:	a8 c6 f4 2c 	l.ori r6,r6,0xf42c
    4b08:	e4 32 30 00 	l.sfne r18,r6
    4b0c:	13 ff ff 49 	l.bf 4830 <__malloc_r+0x3d4>
    4b10:	15 00 00 00 	l.nop 0x0
    4b14:	03 ff ff 96 	l.j 496c <__malloc_r+0x510>
    4b18:	15 00 00 00 	l.nop 0x0
    4b1c:	b8 6c 00 4c 	l.srli r3,r12,0xc
    4b20:	03 ff ff 04 	l.j 4730 <__malloc_r+0x2d4>
    4b24:	9d 03 00 6e 	l.addi r8,r3,0x6e
    4b28:	84 ea 00 0c 	l.lwz r7,0xc(r10)
    4b2c:	e0 aa 28 00 	l.add r5,r10,r5
    4b30:	03 ff ff 60 	l.j 48b0 <__malloc_r+0x454>
    4b34:	a8 78 00 00 	l.ori r3,r24,0x0
    4b38:	84 ea 00 0c 	l.lwz r7,0xc(r10)
    4b3c:	e0 8a 60 00 	l.add r4,r10,r12
    4b40:	a8 ac 00 01 	l.ori r5,r12,0x1
    4b44:	84 ca 00 08 	l.lwz r6,0x8(r10)
    4b48:	e1 24 18 00 	l.add r9,r4,r3
    4b4c:	a9 03 00 01 	l.ori r8,r3,0x1
    4b50:	d4 06 38 0c 	l.sw 0xc(r6),r7
    4b54:	d4 07 30 08 	l.sw 0x8(r7),r6
    4b58:	19 a0 00 00 	l.movhi r13,0x0
    4b5c:	a9 ad f4 34 	l.ori r13,r13,0xf434
    4b60:	d4 0b 20 0c 	l.sw 0xc(r11),r4
    4b64:	d4 0a 28 04 	l.sw 0x4(r10),r5
    4b68:	d4 0b 20 08 	l.sw 0x8(r11),r4
    4b6c:	d4 09 18 00 	l.sw 0x0(r9),r3
    4b70:	d4 04 68 0c 	l.sw 0xc(r4),r13
    4b74:	d4 04 40 04 	l.sw 0x4(r4),r8
    4b78:	d4 04 68 08 	l.sw 0x8(r4),r13
    4b7c:	03 ff ff a4 	l.j 4a0c <__malloc_r+0x5b0>
    4b80:	a8 78 00 00 	l.ori r3,r24,0x0
    4b84:	9d 08 ff ff 	l.addi r8,r8,0xffffffff
    4b88:	03 ff fe 66 	l.j 4520 <__malloc_r+0xc4>
    4b8c:	9d 08 00 01 	l.addi r8,r8,0x1
    4b90:	10 00 00 10 	l.bf 4bd0 <__malloc_r+0x774>
    4b94:	9d a0 ff fc 	l.addi r13,r0,0xfffffffc
    4b98:	84 66 00 04 	l.lwz r3,0x4(r6)
    4b9c:	e0 63 68 03 	l.and r3,r3,r13
    4ba0:	e4 a3 28 00 	l.sfleu r3,r5
    4ba4:	10 00 00 0b 	l.bf 4bd0 <__malloc_r+0x774>
    4ba8:	15 00 00 00 	l.nop 0x0
    4bac:	84 c6 00 08 	l.lwz r6,0x8(r6)
    4bb0:	e4 06 38 00 	l.sfeq r6,r7
    4bb4:	10 00 00 07 	l.bf 4bd0 <__malloc_r+0x774>
    4bb8:	9c 80 ff fc 	l.addi r4,r0,0xfffffffc
    4bbc:	84 66 00 04 	l.lwz r3,0x4(r6)
    4bc0:	e0 63 20 03 	l.and r3,r3,r4
    4bc4:	e4 a3 28 00 	l.sfleu r3,r5
    4bc8:	0f ff ff f9 	l.bnf 4bac <__malloc_r+0x750>
    4bcc:	15 00 00 00 	l.nop 0x0
    4bd0:	03 ff ff bc 	l.j 4ac0 <__malloc_r+0x664>
    4bd4:	84 e6 00 0c 	l.lwz r7,0xc(r6)
    4bd8:	84 9e 00 04 	l.lwz r4,0x4(r30)
    4bdc:	ac 67 ff ff 	l.xori r3,r7,0xffffffff
    4be0:	e0 64 18 03 	l.and r3,r4,r3
    4be4:	03 ff fe b3 	l.j 46b0 <__malloc_r+0x254>
    4be8:	d4 1e 18 04 	l.sw 0x4(r30),r3
    4bec:	84 9c 00 00 	l.lwz r4,0x0(r28)
    4bf0:	e0 64 18 00 	l.add r3,r4,r3
    4bf4:	03 ff fe eb 	l.j 47a0 <__malloc_r+0x344>
    4bf8:	d4 1c 18 00 	l.sw 0x0(r28),r3
    4bfc:	03 ff ff 6c 	l.j 49ac <__malloc_r+0x550>
    4c00:	d4 0a 20 04 	l.sw 0x4(r10),r4
    4c04:	10 00 00 1a 	l.bf 4c6c <__malloc_r+0x810>
    4c08:	bc 43 00 54 	l.sfgtui r3,0x54
    4c0c:	03 ff ff 9d 	l.j 4a80 <__malloc_r+0x624>
    4c10:	9c 83 00 5b 	l.addi r4,r3,0x5b
    4c14:	10 00 00 1b 	l.bf 4c80 <__malloc_r+0x824>
    4c18:	b8 6c 00 52 	l.srli r3,r12,0x12
    4c1c:	03 ff fe c5 	l.j 4730 <__malloc_r+0x2d4>
    4c20:	9d 03 00 7c 	l.addi r8,r3,0x7c
    4c24:	d4 0a 20 04 	l.sw 0x4(r10),r4
    4c28:	84 72 00 04 	l.lwz r3,0x4(r18)
    4c2c:	9c 96 ff f4 	l.addi r4,r22,0xfffffff4
    4c30:	9c c0 00 05 	l.addi r6,r0,0x5
    4c34:	e2 84 28 03 	l.and r20,r4,r5
    4c38:	a4 63 00 01 	l.andi r3,r3,0x1
    4c3c:	e0 92 a0 00 	l.add r4,r18,r20
    4c40:	e0 63 a0 04 	l.or r3,r3,r20
    4c44:	bc b4 00 0f 	l.sfleui r20,0xf
    4c48:	d4 12 18 04 	l.sw 0x4(r18),r3
    4c4c:	d4 04 30 08 	l.sw 0x8(r4),r6
    4c50:	13 ff ff 57 	l.bf 49ac <__malloc_r+0x550>
    4c54:	d4 04 30 04 	l.sw 0x4(r4),r6
    4c58:	9c 92 00 08 	l.addi r4,r18,0x8
    4c5c:	07 ff fc b5 	l.jal 3f30 <__free_r>
    4c60:	a8 78 00 00 	l.ori r3,r24,0x0
    4c64:	03 ff ff 52 	l.j 49ac <__malloc_r+0x550>
    4c68:	15 00 00 00 	l.nop 0x0
    4c6c:	10 00 00 07 	l.bf 4c88 <__malloc_r+0x82c>
    4c70:	bc 43 01 54 	l.sfgtui r3,0x154
    4c74:	b8 65 00 4c 	l.srli r3,r5,0xc
    4c78:	03 ff ff 82 	l.j 4a80 <__malloc_r+0x624>
    4c7c:	9c 83 00 6e 	l.addi r4,r3,0x6e
    4c80:	03 ff fe ac 	l.j 4730 <__malloc_r+0x2d4>
    4c84:	9d 00 00 7e 	l.addi r8,r0,0x7e
    4c88:	10 00 00 05 	l.bf 4c9c <__malloc_r+0x840>
    4c8c:	bc 43 05 54 	l.sfgtui r3,0x554
    4c90:	b8 65 00 4f 	l.srli r3,r5,0xf
    4c94:	03 ff ff 7b 	l.j 4a80 <__malloc_r+0x624>
    4c98:	9c 83 00 77 	l.addi r4,r3,0x77
    4c9c:	10 00 00 04 	l.bf 4cac <__malloc_r+0x850>
    4ca0:	b8 65 00 52 	l.srli r3,r5,0x12
    4ca4:	03 ff ff 77 	l.j 4a80 <__malloc_r+0x624>
    4ca8:	9c 83 00 7c 	l.addi r4,r3,0x7c
    4cac:	03 ff ff 75 	l.j 4a80 <__malloc_r+0x624>
    4cb0:	9c 80 00 7e 	l.addi r4,r0,0x7e
    4cb4:	85 21 00 00 	l.lwz r9,0x0(r1)
    4cb8:	84 41 00 04 	l.lwz r2,0x4(r1)
    4cbc:	85 41 00 08 	l.lwz r10,0x8(r1)
    4cc0:	85 81 00 0c 	l.lwz r12,0xc(r1)
    4cc4:	85 c1 00 10 	l.lwz r14,0x10(r1)
    4cc8:	86 01 00 14 	l.lwz r16,0x14(r1)
    4ccc:	86 41 00 18 	l.lwz r18,0x18(r1)
    4cd0:	86 81 00 1c 	l.lwz r20,0x1c(r1)
    4cd4:	86 c1 00 20 	l.lwz r22,0x20(r1)
    4cd8:	87 01 00 24 	l.lwz r24,0x24(r1)
    4cdc:	87 41 00 28 	l.lwz r26,0x28(r1)
    4ce0:	87 81 00 2c 	l.lwz r28,0x2c(r1)
    4ce4:	87 c1 00 30 	l.lwz r30,0x30(r1)
    4ce8:	44 00 48 00 	l.jr r9
    4cec:	9c 21 00 34 	l.addi r1,r1,0x34

00004cf0 <__wcsrtombs_r>:
    4cf0:	9c 21 ff c0 	l.addi r1,r1,0xffffffc0
    4cf4:	d4 01 10 04 	l.sw 0x4(r1),r2
    4cf8:	9c 41 00 40 	l.addi r2,r1,0x40
    4cfc:	d4 01 48 00 	l.sw 0x0(r1),r9
    4d00:	d4 01 50 08 	l.sw 0x8(r1),r10
    4d04:	d4 01 60 0c 	l.sw 0xc(r1),r12
    4d08:	d4 01 70 10 	l.sw 0x10(r1),r14
    4d0c:	d4 01 80 14 	l.sw 0x14(r1),r16
    4d10:	d4 01 90 18 	l.sw 0x18(r1),r18
    4d14:	d4 01 a0 1c 	l.sw 0x1c(r1),r20
    4d18:	d4 01 b0 20 	l.sw 0x20(r1),r22
    4d1c:	d4 01 c0 24 	l.sw 0x24(r1),r24
    4d20:	d4 01 d0 28 	l.sw 0x28(r1),r26
    4d24:	d4 01 e0 2c 	l.sw 0x2c(r1),r28
    4d28:	d4 01 f0 30 	l.sw 0x30(r1),r30
    4d2c:	aa c4 00 00 	l.ori r22,r4,0x0
    4d30:	ab c3 00 00 	l.ori r30,r3,0x0
    4d34:	a9 44 00 00 	l.ori r10,r4,0x0
    4d38:	aa 85 00 00 	l.ori r20,r5,0x0
    4d3c:	aa 06 00 00 	l.ori r16,r6,0x0
    4d40:	bc 24 00 00 	l.sfnei r4,0x0
    4d44:	10 00 00 03 	l.bf 4d50 <__wcsrtombs_r+0x60>
    4d48:	a9 c7 00 00 	l.ori r14,r7,0x0
    4d4c:	9e 00 ff ff 	l.addi r16,r0,0xffffffff
    4d50:	9e 40 00 00 	l.addi r18,r0,0x0
    4d54:	e4 b0 90 00 	l.sfleu r16,r18
    4d58:	10 00 00 30 	l.bf 4e18 <__wcsrtombs_r+0x128>
    4d5c:	85 94 00 00 	l.lwz r12,0x0(r20)
    4d60:	9f 42 ff f4 	l.addi r26,r2,0xfffffff4
    4d64:	87 8e 00 00 	l.lwz r28,0x0(r14)
    4d68:	a8 7e 00 00 	l.ori r3,r30,0x0
    4d6c:	a8 9a 00 00 	l.ori r4,r26,0x0
    4d70:	87 0e 00 04 	l.lwz r24,0x4(r14)
    4d74:	a8 ce 00 00 	l.ori r6,r14,0x0
    4d78:	07 ff fd 78 	l.jal 4358 <__wcrtomb_r>
    4d7c:	84 ac 00 00 	l.lwz r5,0x0(r12)
    4d80:	bc 2b ff ff 	l.sfnei r11,0xffffffff
    4d84:	0c 00 00 27 	l.bnf 4e20 <__wcsrtombs_r+0x130>
    4d88:	e0 70 58 02 	l.sub r3,r16,r11
    4d8c:	e4 83 90 00 	l.sfltu r3,r18
    4d90:	10 00 00 03 	l.bf 4d9c <__wcsrtombs_r+0xac>
    4d94:	9c 80 00 00 	l.addi r4,r0,0x0
    4d98:	9c 80 00 01 	l.addi r4,r0,0x1
    4d9c:	e4 6b 80 00 	l.sfgeu r11,r16
    4da0:	10 00 00 03 	l.bf 4dac <__wcsrtombs_r+0xbc>
    4da4:	9c 60 00 00 	l.addi r3,r0,0x0
    4da8:	9c 60 00 01 	l.addi r3,r0,0x1
    4dac:	e0 64 18 03 	l.and r3,r4,r3
    4db0:	bc 03 00 00 	l.sfeqi r3,0x0
    4db4:	10 00 00 21 	l.bf 4e38 <__wcsrtombs_r+0x148>
    4db8:	bc 16 00 00 	l.sfeqi r22,0x0
    4dbc:	10 00 00 10 	l.bf 4dfc <__wcsrtombs_r+0x10c>
    4dc0:	e2 52 58 00 	l.add r18,r18,r11
    4dc4:	9c 80 00 00 	l.addi r4,r0,0x0
    4dc8:	e5 ab 20 00 	l.sfles r11,r4
    4dcc:	10 00 00 09 	l.bf 4df0 <__wcsrtombs_r+0x100>
    4dd0:	15 00 00 00 	l.nop 0x0
    4dd4:	e0 7a 20 00 	l.add r3,r26,r4
    4dd8:	8c 63 00 00 	l.lbz r3,0x0(r3)
    4ddc:	9c 84 00 01 	l.addi r4,r4,0x1
    4de0:	d8 0a 18 00 	l.sb 0x0(r10),r3
    4de4:	e5 64 58 00 	l.sfges r4,r11
    4de8:	0f ff ff fb 	l.bnf 4dd4 <__wcsrtombs_r+0xe4>
    4dec:	9d 4a 00 01 	l.addi r10,r10,0x1
    4df0:	84 74 00 00 	l.lwz r3,0x0(r20)
    4df4:	9c 63 00 04 	l.addi r3,r3,0x4
    4df8:	d4 14 18 00 	l.sw 0x0(r20),r3
    4dfc:	84 6c 00 00 	l.lwz r3,0x0(r12)
    4e00:	bc 23 00 00 	l.sfnei r3,0x0
    4e04:	0c 00 00 10 	l.bnf 4e44 <__wcsrtombs_r+0x154>
    4e08:	9d 8c 00 04 	l.addi r12,r12,0x4
    4e0c:	e4 72 80 00 	l.sfgeu r18,r16
    4e10:	0f ff ff d5 	l.bnf 4d64 <__wcsrtombs_r+0x74>
    4e14:	15 00 00 00 	l.nop 0x0
    4e18:	00 00 00 12 	l.j 4e60 <__wcsrtombs_r+0x170>
    4e1c:	a9 72 00 00 	l.ori r11,r18,0x0
    4e20:	9c 60 00 8a 	l.addi r3,r0,0x8a
    4e24:	9d 60 ff ff 	l.addi r11,r0,0xffffffff
    4e28:	d4 1e 18 00 	l.sw 0x0(r30),r3
    4e2c:	9c 60 00 00 	l.addi r3,r0,0x0
    4e30:	00 00 00 0c 	l.j 4e60 <__wcsrtombs_r+0x170>
    4e34:	d4 0e 18 00 	l.sw 0x0(r14),r3
    4e38:	d4 0e c0 04 	l.sw 0x4(r14),r24
    4e3c:	03 ff ff f7 	l.j 4e18 <__wcsrtombs_r+0x128>
    4e40:	d4 0e e0 00 	l.sw 0x0(r14),r28
    4e44:	bc 16 00 00 	l.sfeqi r22,0x0
    4e48:	10 00 00 04 	l.bf 4e58 <__wcsrtombs_r+0x168>
    4e4c:	9c 60 00 00 	l.addi r3,r0,0x0
    4e50:	d4 14 18 00 	l.sw 0x0(r20),r3
    4e54:	9c 60 00 00 	l.addi r3,r0,0x0
    4e58:	9d 72 ff ff 	l.addi r11,r18,0xffffffff
    4e5c:	d4 0e 18 00 	l.sw 0x0(r14),r3
    4e60:	85 21 00 00 	l.lwz r9,0x0(r1)
    4e64:	84 41 00 04 	l.lwz r2,0x4(r1)
    4e68:	85 41 00 08 	l.lwz r10,0x8(r1)
    4e6c:	85 81 00 0c 	l.lwz r12,0xc(r1)
    4e70:	85 c1 00 10 	l.lwz r14,0x10(r1)
    4e74:	86 01 00 14 	l.lwz r16,0x14(r1)
    4e78:	86 41 00 18 	l.lwz r18,0x18(r1)
    4e7c:	86 81 00 1c 	l.lwz r20,0x1c(r1)
    4e80:	86 c1 00 20 	l.lwz r22,0x20(r1)
    4e84:	87 01 00 24 	l.lwz r24,0x24(r1)
    4e88:	87 41 00 28 	l.lwz r26,0x28(r1)
    4e8c:	87 81 00 2c 	l.lwz r28,0x2c(r1)
    4e90:	87 c1 00 30 	l.lwz r30,0x30(r1)
    4e94:	44 00 48 00 	l.jr r9
    4e98:	9c 21 00 40 	l.addi r1,r1,0x40

00004e9c <_wcsrtombs>:
    4e9c:	9c 21 ff f8 	l.addi r1,r1,0xfffffff8
    4ea0:	d4 01 10 04 	l.sw 0x4(r1),r2
    4ea4:	9c 41 00 08 	l.addi r2,r1,0x8
    4ea8:	d4 01 48 00 	l.sw 0x0(r1),r9
    4eac:	a9 63 00 00 	l.ori r11,r3,0x0
    4eb0:	a9 04 00 00 	l.ori r8,r4,0x0
    4eb4:	18 60 00 00 	l.movhi r3,0x0
    4eb8:	a8 63 f3 cc 	l.ori r3,r3,0xf3cc
    4ebc:	a9 25 00 00 	l.ori r9,r5,0x0
    4ec0:	a8 e6 00 00 	l.ori r7,r6,0x0
    4ec4:	84 63 00 00 	l.lwz r3,0x0(r3)
    4ec8:	a8 8b 00 00 	l.ori r4,r11,0x0
    4ecc:	a8 c9 00 00 	l.ori r6,r9,0x0
    4ed0:	07 ff ff 88 	l.jal 4cf0 <__wcsrtombs_r>
    4ed4:	a8 a8 00 00 	l.ori r5,r8,0x0
    4ed8:	85 21 00 00 	l.lwz r9,0x0(r1)
    4edc:	84 41 00 04 	l.lwz r2,0x4(r1)
    4ee0:	44 00 48 00 	l.jr r9
    4ee4:	9c 21 00 08 	l.addi r1,r1,0x8

00004ee8 <_memchr>:
    4ee8:	9c 21 ff f8 	l.addi r1,r1,0xfffffff8
    4eec:	d4 01 10 04 	l.sw 0x4(r1),r2
    4ef0:	9c 41 00 08 	l.addi r2,r1,0x8
    4ef4:	d4 01 48 00 	l.sw 0x0(r1),r9
    4ef8:	bc a5 00 03 	l.sfleui r5,0x3
    4efc:	10 00 00 06 	l.bf 4f14 <_memchr+0x2c>
    4f00:	a4 84 00 ff 	l.andi r4,r4,0xff
    4f04:	a4 c3 00 03 	l.andi r6,r3,0x3
    4f08:	bc 26 00 00 	l.sfnei r6,0x0
    4f0c:	0c 00 00 0e 	l.bnf 4f44 <_memchr+0x5c>
    4f10:	9d 00 00 00 	l.addi r8,r0,0x0
    4f14:	00 00 00 07 	l.j 4f30 <_memchr+0x48>
    4f18:	9c a5 ff ff 	l.addi r5,r5,0xffffffff
    4f1c:	8c c3 00 00 	l.lbz r6,0x0(r3)
    4f20:	e4 26 20 00 	l.sfne r6,r4
    4f24:	0c 00 00 2d 	l.bnf 4fd8 <_memchr+0xf0>
    4f28:	9c a5 ff ff 	l.addi r5,r5,0xffffffff
    4f2c:	9c 63 00 01 	l.addi r3,r3,0x1
    4f30:	bc 05 ff ff 	l.sfeqi r5,0xffffffff
    4f34:	0f ff ff fa 	l.bnf 4f1c <_memchr+0x34>
    4f38:	15 00 00 00 	l.nop 0x0
    4f3c:	00 00 00 27 	l.j 4fd8 <_memchr+0xf0>
    4f40:	9c 60 00 00 	l.addi r3,r0,0x0
    4f44:	a9 23 00 00 	l.ori r9,r3,0x0
    4f48:	a8 c8 00 00 	l.ori r6,r8,0x0
    4f4c:	b8 68 00 08 	l.slli r3,r8,0x8
    4f50:	9c c6 00 01 	l.addi r6,r6,0x1
    4f54:	bc 46 00 03 	l.sfgtui r6,0x3
    4f58:	0f ff ff fd 	l.bnf 4f4c <_memchr+0x64>
    4f5c:	e1 03 20 00 	l.add r8,r3,r4
    4f60:	bc a5 00 03 	l.sfleui r5,0x3
    4f64:	13 ff ff ec 	l.bf 4f14 <_memchr+0x2c>
    4f68:	a8 69 00 00 	l.ori r3,r9,0x0
    4f6c:	84 69 00 00 	l.lwz r3,0x0(r9)
    4f70:	18 e0 fe fe 	l.movhi r7,0xfefe
    4f74:	a8 e7 fe ff 	l.ori r7,r7,0xfeff
    4f78:	e0 63 40 05 	l.xor r3,r3,r8
    4f7c:	ac c3 ff ff 	l.xori r6,r3,0xffffffff
    4f80:	e0 63 38 00 	l.add r3,r3,r7
    4f84:	e0 63 30 03 	l.and r3,r3,r6
    4f88:	18 c0 80 80 	l.movhi r6,0x8080
    4f8c:	a8 c6 80 80 	l.ori r6,r6,0x8080
    4f90:	e0 63 30 03 	l.and r3,r3,r6
    4f94:	bc 03 00 00 	l.sfeqi r3,0x0
    4f98:	10 00 00 0a 	l.bf 4fc0 <_memchr+0xd8>
    4f9c:	a8 69 00 00 	l.ori r3,r9,0x0
    4fa0:	9c e0 00 00 	l.addi r7,r0,0x0
    4fa4:	8c c3 00 00 	l.lbz r6,0x0(r3)
    4fa8:	e4 26 20 00 	l.sfne r6,r4
    4fac:	0c 00 00 0b 	l.bnf 4fd8 <_memchr+0xf0>
    4fb0:	9c e7 00 01 	l.addi r7,r7,0x1
    4fb4:	bc 47 00 03 	l.sfgtui r7,0x3
    4fb8:	0f ff ff fb 	l.bnf 4fa4 <_memchr+0xbc>
    4fbc:	9c 63 00 01 	l.addi r3,r3,0x1
    4fc0:	9c a5 ff fc 	l.addi r5,r5,0xfffffffc
    4fc4:	bc a5 00 03 	l.sfleui r5,0x3
    4fc8:	0f ff ff e9 	l.bnf 4f6c <_memchr+0x84>
    4fcc:	9d 29 00 04 	l.addi r9,r9,0x4
    4fd0:	03 ff ff d1 	l.j 4f14 <_memchr+0x2c>
    4fd4:	a8 69 00 00 	l.ori r3,r9,0x0
    4fd8:	a9 63 00 00 	l.ori r11,r3,0x0
    4fdc:	85 21 00 00 	l.lwz r9,0x0(r1)
    4fe0:	84 41 00 04 	l.lwz r2,0x4(r1)
    4fe4:	44 00 48 00 	l.jr r9
    4fe8:	9c 21 00 08 	l.addi r1,r1,0x8

00004fec <_quorem>:
    4fec:	9c 21 ff cc 	l.addi r1,r1,0xffffffcc
    4ff0:	d4 01 10 04 	l.sw 0x4(r1),r2
    4ff4:	9c 41 00 34 	l.addi r2,r1,0x34
    4ff8:	d4 01 48 00 	l.sw 0x0(r1),r9
    4ffc:	d4 01 50 08 	l.sw 0x8(r1),r10
    5000:	d4 01 60 0c 	l.sw 0xc(r1),r12
    5004:	d4 01 70 10 	l.sw 0x10(r1),r14
    5008:	d4 01 80 14 	l.sw 0x14(r1),r16
    500c:	d4 01 90 18 	l.sw 0x18(r1),r18
    5010:	d4 01 a0 1c 	l.sw 0x1c(r1),r20
    5014:	d4 01 b0 20 	l.sw 0x20(r1),r22
    5018:	d4 01 c0 24 	l.sw 0x24(r1),r24
    501c:	d4 01 d0 28 	l.sw 0x28(r1),r26
    5020:	d4 01 e0 2c 	l.sw 0x2c(r1),r28
    5024:	d4 01 f0 30 	l.sw 0x30(r1),r30
    5028:	ab 43 00 00 	l.ori r26,r3,0x0
    502c:	86 04 00 10 	l.lwz r16,0x10(r4)
    5030:	84 63 00 10 	l.lwz r3,0x10(r3)
    5034:	e5 63 80 00 	l.sfges r3,r16
    5038:	10 00 00 04 	l.bf 5048 <_quorem+0x5c>
    503c:	aa c4 00 00 	l.ori r22,r4,0x0
    5040:	00 00 00 77 	l.j 521c <_quorem+0x230>
    5044:	9d 60 00 00 	l.addi r11,r0,0x0
    5048:	9e 10 ff ff 	l.addi r16,r16,0xffffffff
    504c:	9d 84 00 14 	l.addi r12,r4,0x14
    5050:	b8 70 00 02 	l.slli r3,r16,0x2
    5054:	9f 1a 00 14 	l.addi r24,r26,0x14
    5058:	ab cc 00 00 	l.ori r30,r12,0x0
    505c:	e1 c3 c0 00 	l.add r14,r3,r24
    5060:	e2 83 60 00 	l.add r20,r3,r12
    5064:	87 8e 00 00 	l.lwz r28,0x0(r14)
    5068:	a9 58 00 00 	l.ori r10,r24,0x0
    506c:	84 94 00 00 	l.lwz r4,0x0(r20)
    5070:	a8 7c 00 00 	l.ori r3,r28,0x0
    5074:	04 00 19 3b 	l.jal b560 <___udivsi3>
    5078:	9c 84 00 01 	l.addi r4,r4,0x1
    507c:	bc 0b 00 00 	l.sfeqi r11,0x0
    5080:	0c 00 00 3a 	l.bnf 5168 <_quorem+0x17c>
    5084:	aa 4b 00 00 	l.ori r18,r11,0x0
    5088:	a8 96 00 00 	l.ori r4,r22,0x0
    508c:	04 00 0e 97 	l.jal 8ae8 <___mcmp>
    5090:	a8 7a 00 00 	l.ori r3,r26,0x0
    5094:	bd 8b 00 00 	l.sfltsi r11,0x0
    5098:	10 00 00 61 	l.bf 521c <_quorem+0x230>
    509c:	a9 72 00 00 	l.ori r11,r18,0x0
    50a0:	9d 00 00 00 	l.addi r8,r0,0x0
    50a4:	9e 52 00 01 	l.addi r18,r18,0x1
    50a8:	a9 9e 00 00 	l.ori r12,r30,0x0
    50ac:	a9 68 00 00 	l.ori r11,r8,0x0
    50b0:	a9 58 00 00 	l.ori r10,r24,0x0
    50b4:	84 8c 00 00 	l.lwz r4,0x0(r12)
    50b8:	a4 64 ff ff 	l.andi r3,r4,0xffff
    50bc:	b8 c4 00 50 	l.srli r6,r4,0x10
    50c0:	e0 63 58 00 	l.add r3,r3,r11
    50c4:	84 ea 00 00 	l.lwz r7,0x0(r10)
    50c8:	b8 83 00 50 	l.srli r4,r3,0x10
    50cc:	a4 a3 ff ff 	l.andi r5,r3,0xffff
    50d0:	9d 8c 00 04 	l.addi r12,r12,0x4
    50d4:	a4 67 ff ff 	l.andi r3,r7,0xffff
    50d8:	e0 86 20 00 	l.add r4,r6,r4
    50dc:	e0 63 28 02 	l.sub r3,r3,r5
    50e0:	b8 e7 00 50 	l.srli r7,r7,0x10
    50e4:	e0 63 40 00 	l.add r3,r3,r8
    50e8:	a4 a4 ff ff 	l.andi r5,r4,0xffff
    50ec:	b9 03 00 90 	l.srai r8,r3,0x10
    50f0:	dc 0a 18 02 	l.sh 0x2(r10),r3
    50f4:	e0 a7 28 02 	l.sub r5,r7,r5
    50f8:	b9 64 00 50 	l.srli r11,r4,0x10
    50fc:	e0 65 40 00 	l.add r3,r5,r8
    5100:	e4 4c a0 00 	l.sfgtu r12,r20
    5104:	dc 0a 18 00 	l.sh 0x0(r10),r3
    5108:	b9 03 00 90 	l.srai r8,r3,0x10
    510c:	0f ff ff ea 	l.bnf 50b4 <_quorem+0xc8>
    5110:	9d 4a 00 04 	l.addi r10,r10,0x4
    5114:	b8 70 00 02 	l.slli r3,r16,0x2
    5118:	e1 c3 c0 00 	l.add r14,r3,r24
    511c:	84 6e 00 00 	l.lwz r3,0x0(r14)
    5120:	bc 23 00 00 	l.sfnei r3,0x0
    5124:	10 00 00 0f 	l.bf 5160 <_quorem+0x174>
    5128:	15 00 00 00 	l.nop 0x0
    512c:	9d ce ff fc 	l.addi r14,r14,0xfffffffc
    5130:	e4 ae c0 00 	l.sfleu r14,r24
    5134:	10 00 00 0a 	l.bf 515c <_quorem+0x170>
    5138:	15 00 00 00 	l.nop 0x0
    513c:	84 6e 00 00 	l.lwz r3,0x0(r14)
    5140:	bc 23 00 00 	l.sfnei r3,0x0
    5144:	10 00 00 06 	l.bf 515c <_quorem+0x170>
    5148:	15 00 00 00 	l.nop 0x0
    514c:	9d ce ff fc 	l.addi r14,r14,0xfffffffc
    5150:	e4 ae c0 00 	l.sfleu r14,r24
    5154:	0f ff ff fa 	l.bnf 513c <_quorem+0x150>
    5158:	9e 10 ff ff 	l.addi r16,r16,0xffffffff
    515c:	d4 1a 80 10 	l.sw 0x10(r26),r16
    5160:	00 00 00 2f 	l.j 521c <_quorem+0x230>
    5164:	a9 72 00 00 	l.ori r11,r18,0x0
    5168:	9d 00 00 00 	l.addi r8,r0,0x0
    516c:	a9 68 00 00 	l.ori r11,r8,0x0
    5170:	84 8c 00 00 	l.lwz r4,0x0(r12)
    5174:	b8 a4 00 50 	l.srli r5,r4,0x10
    5178:	a4 64 ff ff 	l.andi r3,r4,0xffff
    517c:	9d 8c 00 04 	l.addi r12,r12,0x4
    5180:	e0 83 93 06 	l.mul r4,r3,r18
    5184:	e4 4c a0 00 	l.sfgtu r12,r20
    5188:	e0 e5 93 06 	l.mul r7,r5,r18
    518c:	84 6a 00 00 	l.lwz r3,0x0(r10)
    5190:	b9 23 00 50 	l.srli r9,r3,0x10
    5194:	a4 c3 ff ff 	l.andi r6,r3,0xffff
    5198:	e0 64 58 00 	l.add r3,r4,r11
    519c:	a4 83 ff ff 	l.andi r4,r3,0xffff
    51a0:	b8 a3 00 50 	l.srli r5,r3,0x10
    51a4:	e0 66 20 02 	l.sub r3,r6,r4
    51a8:	e0 63 40 00 	l.add r3,r3,r8
    51ac:	e0 87 28 00 	l.add r4,r7,r5
    51b0:	b9 03 00 90 	l.srai r8,r3,0x10
    51b4:	dc 0a 18 02 	l.sh 0x2(r10),r3
    51b8:	b9 64 00 50 	l.srli r11,r4,0x10
    51bc:	a4 64 ff ff 	l.andi r3,r4,0xffff
    51c0:	e0 69 18 02 	l.sub r3,r9,r3
    51c4:	e0 63 40 00 	l.add r3,r3,r8
    51c8:	dc 0a 18 00 	l.sh 0x0(r10),r3
    51cc:	b9 03 00 90 	l.srai r8,r3,0x10
    51d0:	0f ff ff e8 	l.bnf 5170 <_quorem+0x184>
    51d4:	9d 4a 00 04 	l.addi r10,r10,0x4
    51d8:	bc 3c 00 00 	l.sfnei r28,0x0
    51dc:	13 ff ff ab 	l.bf 5088 <_quorem+0x9c>
    51e0:	15 00 00 00 	l.nop 0x0
    51e4:	9d ce ff fc 	l.addi r14,r14,0xfffffffc
    51e8:	e4 ae c0 00 	l.sfleu r14,r24
    51ec:	10 00 00 0a 	l.bf 5214 <_quorem+0x228>
    51f0:	15 00 00 00 	l.nop 0x0
    51f4:	84 6e 00 00 	l.lwz r3,0x0(r14)
    51f8:	bc 23 00 00 	l.sfnei r3,0x0
    51fc:	10 00 00 06 	l.bf 5214 <_quorem+0x228>
    5200:	15 00 00 00 	l.nop 0x0
    5204:	9d ce ff fc 	l.addi r14,r14,0xfffffffc
    5208:	e4 ae c0 00 	l.sfleu r14,r24
    520c:	0f ff ff fa 	l.bnf 51f4 <_quorem+0x208>
    5210:	9e 10 ff ff 	l.addi r16,r16,0xffffffff
    5214:	03 ff ff 9d 	l.j 5088 <_quorem+0x9c>
    5218:	d4 1a 80 10 	l.sw 0x10(r26),r16
    521c:	85 21 00 00 	l.lwz r9,0x0(r1)
    5220:	84 41 00 04 	l.lwz r2,0x4(r1)
    5224:	85 41 00 08 	l.lwz r10,0x8(r1)
    5228:	85 81 00 0c 	l.lwz r12,0xc(r1)
    522c:	85 c1 00 10 	l.lwz r14,0x10(r1)
    5230:	86 01 00 14 	l.lwz r16,0x14(r1)
    5234:	86 41 00 18 	l.lwz r18,0x18(r1)
    5238:	86 81 00 1c 	l.lwz r20,0x1c(r1)
    523c:	86 c1 00 20 	l.lwz r22,0x20(r1)
    5240:	87 01 00 24 	l.lwz r24,0x24(r1)
    5244:	87 41 00 28 	l.lwz r26,0x28(r1)
    5248:	87 81 00 2c 	l.lwz r28,0x2c(r1)
    524c:	87 c1 00 30 	l.lwz r30,0x30(r1)
    5250:	44 00 48 00 	l.jr r9
    5254:	9c 21 00 34 	l.addi r1,r1,0x34

00005258 <__dtoa_r>:
    5258:	9c 21 ff 0c 	l.addi r1,r1,0xffffff0c
    525c:	d4 01 10 04 	l.sw 0x4(r1),r2
    5260:	9c 41 00 f4 	l.addi r2,r1,0xf4
    5264:	d4 01 48 00 	l.sw 0x0(r1),r9
    5268:	d4 01 50 08 	l.sw 0x8(r1),r10
    526c:	d4 01 60 0c 	l.sw 0xc(r1),r12
    5270:	d4 01 70 10 	l.sw 0x10(r1),r14
    5274:	d4 01 80 14 	l.sw 0x14(r1),r16
    5278:	d4 01 90 18 	l.sw 0x18(r1),r18
    527c:	d4 01 a0 1c 	l.sw 0x1c(r1),r20
    5280:	d4 01 b0 20 	l.sw 0x20(r1),r22
    5284:	d4 01 c0 24 	l.sw 0x24(r1),r24
    5288:	d4 01 d0 28 	l.sw 0x28(r1),r26
    528c:	d4 01 e0 2c 	l.sw 0x2c(r1),r28
    5290:	d4 01 f0 30 	l.sw 0x30(r1),r30
    5294:	ab 47 00 00 	l.ori r26,r7,0x0
    5298:	9c 80 00 00 	l.addi r4,r0,0x0
    529c:	84 e3 00 40 	l.lwz r7,0x40(r3)
    52a0:	aa 83 00 00 	l.ori r20,r3,0x0
    52a4:	d7 e2 2f 98 	l.sw 0xffffff98(r2),r5
    52a8:	d7 e2 37 9c 	l.sw 0xffffff9c(r2),r6
    52ac:	85 42 00 04 	l.lwz r10,0x4(r2)
    52b0:	e4 07 20 00 	l.sfeq r7,r4
    52b4:	d7 e2 47 c4 	l.sw 0xffffffc4(r2),r8
    52b8:	0c 00 00 50 	l.bnf 53f8 <__dtoa_r+0x1a0>
    52bc:	d7 e2 27 80 	l.sw 0xffffff80(r2),r4
    52c0:	84 e2 ff 98 	l.lwz r7,0xffffff98(r2)
    52c4:	bd 67 00 00 	l.sfgesi r7,0x0
    52c8:	10 00 00 24 	l.bf 5358 <__dtoa_r+0x100>
    52cc:	84 c2 ff 98 	l.lwz r6,0xffffff98(r2)
    52d0:	18 80 7f ff 	l.movhi r4,0x7fff
    52d4:	a8 84 ff ff 	l.ori r4,r4,0xffff
    52d8:	9d 00 00 01 	l.addi r8,r0,0x1
    52dc:	e0 67 20 03 	l.and r3,r7,r4
    52e0:	d4 0a 40 00 	l.sw 0x0(r10),r8
    52e4:	d7 e2 1f 98 	l.sw 0xffffff98(r2),r3
    52e8:	18 e0 7f f0 	l.movhi r7,0x7ff0
    52ec:	a8 e7 00 00 	l.ori r7,r7,0x0
    52f0:	84 c2 ff 98 	l.lwz r6,0xffffff98(r2)
    52f4:	e0 66 38 03 	l.and r3,r6,r7
    52f8:	e4 23 38 00 	l.sfne r3,r7
    52fc:	10 00 00 1e 	l.bf 5374 <__dtoa_r+0x11c>
    5300:	15 00 00 00 	l.nop 0x0
    5304:	85 02 00 00 	l.lwz r8,0x0(r2)
    5308:	9c 60 27 0f 	l.addi r3,r0,0x270f
    530c:	84 82 ff 9c 	l.lwz r4,0xffffff9c(r2)
    5310:	bc 24 00 00 	l.sfnei r4,0x0
    5314:	0c 00 00 2e 	l.bnf 53cc <__dtoa_r+0x174>
    5318:	d4 08 18 00 	l.sw 0x0(r8),r3
    531c:	1a c0 00 00 	l.movhi r22,0x0
    5320:	aa d6 cd c0 	l.ori r22,r22,0xcdc0
    5324:	84 e2 00 08 	l.lwz r7,0x8(r2)
    5328:	bc 07 00 00 	l.sfeqi r7,0x0
    532c:	10 00 05 bf 	l.bf 6a28 <__dtoa_r+0x17d0>
    5330:	a9 76 00 00 	l.ori r11,r22,0x0
    5334:	90 76 00 03 	l.lbs r3,0x3(r22)
    5338:	bc 03 00 00 	l.sfeqi r3,0x0
    533c:	0c 00 00 03 	l.bnf 5348 <__dtoa_r+0xf0>
    5340:	9c 76 00 08 	l.addi r3,r22,0x8
    5344:	9c 76 00 03 	l.addi r3,r22,0x3
    5348:	85 02 00 08 	l.lwz r8,0x8(r2)
    534c:	d4 08 18 00 	l.sw 0x0(r8),r3
    5350:	00 00 05 b6 	l.j 6a28 <__dtoa_r+0x17d0>
    5354:	a9 76 00 00 	l.ori r11,r22,0x0
    5358:	18 e0 7f f0 	l.movhi r7,0x7ff0
    535c:	a8 e7 00 00 	l.ori r7,r7,0x0
    5360:	84 a2 ff 80 	l.lwz r5,0xffffff80(r2)
    5364:	e0 66 38 03 	l.and r3,r6,r7
    5368:	e4 23 38 00 	l.sfne r3,r7
    536c:	0f ff ff e6 	l.bnf 5304 <__dtoa_r+0xac>
    5370:	d4 0a 28 00 	l.sw 0x0(r10),r5
    5374:	18 e0 00 00 	l.movhi r7,0x0
    5378:	a8 e7 cd d0 	l.ori r7,r7,0xcdd0
    537c:	84 62 ff 98 	l.lwz r3,0xffffff98(r2)
    5380:	84 82 ff 9c 	l.lwz r4,0xffffff9c(r2)
    5384:	84 a7 00 00 	l.lwz r5,0x0(r7)
    5388:	84 c7 00 04 	l.lwz r6,0x4(r7)
    538c:	04 00 16 2b 	l.jal ac38 <___eqdf2>
    5390:	15 00 00 00 	l.nop 0x0
    5394:	bc 0b 00 00 	l.sfeqi r11,0x0
    5398:	0c 00 00 23 	l.bnf 5424 <__dtoa_r+0x1cc>
    539c:	85 02 00 00 	l.lwz r8,0x0(r2)
    53a0:	9c 60 00 01 	l.addi r3,r0,0x1
    53a4:	1a c0 00 00 	l.movhi r22,0x0
    53a8:	aa d6 cd c4 	l.ori r22,r22,0xcdc4
    53ac:	84 82 00 08 	l.lwz r4,0x8(r2)
    53b0:	bc 04 00 00 	l.sfeqi r4,0x0
    53b4:	13 ff ff e7 	l.bf 5350 <__dtoa_r+0xf8>
    53b8:	d4 08 18 00 	l.sw 0x0(r8),r3
    53bc:	18 a0 00 00 	l.movhi r5,0x0
    53c0:	a8 a5 cd c9 	l.ori r5,r5,0xcdc9
    53c4:	03 ff ff e3 	l.j 5350 <__dtoa_r+0xf8>
    53c8:	d4 04 28 00 	l.sw 0x0(r4),r5
    53cc:	a8 a6 00 00 	l.ori r5,r6,0x0
    53d0:	18 c0 00 0f 	l.movhi r6,0xf
    53d4:	a8 c6 ff ff 	l.ori r6,r6,0xffff
    53d8:	e0 65 30 03 	l.and r3,r5,r6
    53dc:	bc 23 00 00 	l.sfnei r3,0x0
    53e0:	13 ff ff cf 	l.bf 531c <__dtoa_r+0xc4>
    53e4:	84 e2 00 08 	l.lwz r7,0x8(r2)
    53e8:	1a c0 00 00 	l.movhi r22,0x0
    53ec:	aa d6 cd c6 	l.ori r22,r22,0xcdc6
    53f0:	03 ff ff cf 	l.j 532c <__dtoa_r+0xd4>
    53f4:	bc 07 00 00 	l.sfeqi r7,0x0
    53f8:	84 a3 00 44 	l.lwz r5,0x44(r3)
    53fc:	a8 87 00 00 	l.ori r4,r7,0x0
    5400:	d4 07 28 04 	l.sw 0x4(r7),r5
    5404:	84 c3 00 44 	l.lwz r6,0x44(r3)
    5408:	9c a0 00 01 	l.addi r5,r0,0x1
    540c:	e0 a5 30 08 	l.sll r5,r5,r6
    5410:	04 00 0b 5c 	l.jal 8180 <__Bfree>
    5414:	d4 07 28 08 	l.sw 0x8(r7),r5
    5418:	84 c2 ff 80 	l.lwz r6,0xffffff80(r2)
    541c:	03 ff ff a9 	l.j 52c0 <__dtoa_r+0x68>
    5420:	d4 14 30 40 	l.sw 0x40(r20),r6
    5424:	a8 74 00 00 	l.ori r3,r20,0x0
    5428:	9c e2 ff cc 	l.addi r7,r2,0xffffffcc
    542c:	84 a2 ff 98 	l.lwz r5,0xffffff98(r2)
    5430:	84 c2 ff 9c 	l.lwz r6,0xffffff9c(r2)
    5434:	04 00 0e bd 	l.jal 8f28 <__d2b>
    5438:	9d 02 ff c8 	l.addi r8,r2,0xffffffc8
    543c:	84 c2 ff 98 	l.lwz r6,0xffffff98(r2)
    5440:	b8 86 00 54 	l.srli r4,r6,0x14
    5444:	a5 c4 07 ff 	l.andi r14,r4,0x7ff
    5448:	bc 0e 00 00 	l.sfeqi r14,0x0
    544c:	10 00 01 e6 	l.bf 5be4 <__dtoa_r+0x98c>
    5450:	ab cb 00 00 	l.ori r30,r11,0x0
    5454:	84 e2 ff 98 	l.lwz r7,0xffffff98(r2)
    5458:	85 02 ff 9c 	l.lwz r8,0xffffff9c(r2)
    545c:	d7 e2 3f 90 	l.sw 0xffffff90(r2),r7
    5460:	d7 e2 47 94 	l.sw 0xffffff94(r2),r8
    5464:	85 02 ff 90 	l.lwz r8,0xffffff90(r2)
    5468:	18 60 00 0f 	l.movhi r3,0xf
    546c:	a8 63 ff ff 	l.ori r3,r3,0xffff
    5470:	18 a0 3f f0 	l.movhi r5,0x3ff0
    5474:	a8 a5 00 00 	l.ori r5,r5,0x0
    5478:	e1 08 18 03 	l.and r8,r8,r3
    547c:	9c c0 00 00 	l.addi r6,r0,0x0
    5480:	e0 88 28 04 	l.or r4,r8,r5
    5484:	9d ce fc 01 	l.addi r14,r14,0xfffffc01
    5488:	d7 e2 27 90 	l.sw 0xffffff90(r2),r4
    548c:	d7 e2 37 84 	l.sw 0xffffff84(r2),r6
    5490:	9d 82 ff f8 	l.addi r12,r2,0xfffffff8
    5494:	9d 42 ff f0 	l.addi r10,r2,0xfffffff0
    5498:	18 e0 00 00 	l.movhi r7,0x0
    549c:	a8 e7 cd e0 	l.ori r7,r7,0xcde0
    54a0:	85 07 00 04 	l.lwz r8,0x4(r7)
    54a4:	84 e7 00 00 	l.lwz r7,0x0(r7)
    54a8:	84 a2 ff 90 	l.lwz r5,0xffffff90(r2)
    54ac:	84 c2 ff 94 	l.lwz r6,0xffffff94(r2)
    54b0:	04 00 13 11 	l.jal a0f4 <___subdf3>
    54b4:	a8 6a 00 00 	l.ori r3,r10,0x0
    54b8:	18 e0 00 00 	l.movhi r7,0x0
    54bc:	a8 e7 cd e8 	l.ori r7,r7,0xcde8
    54c0:	85 07 00 04 	l.lwz r8,0x4(r7)
    54c4:	84 e7 00 00 	l.lwz r7,0x0(r7)
    54c8:	84 a2 ff f0 	l.lwz r5,0xfffffff0(r2)
    54cc:	84 c2 ff f4 	l.lwz r6,0xfffffff4(r2)
    54d0:	04 00 13 2f 	l.jal a18c <___muldf3>
    54d4:	a8 6c 00 00 	l.ori r3,r12,0x0
    54d8:	18 e0 00 00 	l.movhi r7,0x0
    54dc:	a8 e7 cd f0 	l.ori r7,r7,0xcdf0
    54e0:	84 a2 ff f8 	l.lwz r5,0xfffffff8(r2)
    54e4:	84 c2 ff fc 	l.lwz r6,0xfffffffc(r2)
    54e8:	85 07 00 04 	l.lwz r8,0x4(r7)
    54ec:	84 e7 00 00 	l.lwz r7,0x0(r7)
    54f0:	04 00 12 de 	l.jal a068 <___adddf3>
    54f4:	9c 62 ff e8 	l.addi r3,r2,0xffffffe8
    54f8:	a8 8e 00 00 	l.ori r4,r14,0x0
    54fc:	84 e2 ff e8 	l.lwz r7,0xffffffe8(r2)
    5500:	85 02 ff ec 	l.lwz r8,0xffffffec(r2)
    5504:	d7 e2 3f 68 	l.sw 0xffffff68(r2),r7
    5508:	d7 e2 47 6c 	l.sw 0xffffff6c(r2),r8
    550c:	04 00 16 be 	l.jal b004 <___floatsidf>
    5510:	9c 62 ff e0 	l.addi r3,r2,0xffffffe0
    5514:	18 e0 00 00 	l.movhi r7,0x0
    5518:	a8 e7 cd f8 	l.ori r7,r7,0xcdf8
    551c:	9c 62 ff d8 	l.addi r3,r2,0xffffffd8
    5520:	85 07 00 04 	l.lwz r8,0x4(r7)
    5524:	84 e7 00 00 	l.lwz r7,0x0(r7)
    5528:	84 a2 ff e0 	l.lwz r5,0xffffffe0(r2)
    552c:	84 c2 ff e4 	l.lwz r6,0xffffffe4(r2)
    5530:	04 00 13 17 	l.jal a18c <___muldf3>
    5534:	9e 42 ff d0 	l.addi r18,r2,0xffffffd0
    5538:	84 e2 ff d8 	l.lwz r7,0xffffffd8(r2)
    553c:	85 02 ff dc 	l.lwz r8,0xffffffdc(r2)
    5540:	84 a2 ff 68 	l.lwz r5,0xffffff68(r2)
    5544:	84 c2 ff 6c 	l.lwz r6,0xffffff6c(r2)
    5548:	04 00 12 c8 	l.jal a068 <___adddf3>
    554c:	a8 72 00 00 	l.ori r3,r18,0x0
    5550:	84 62 ff d0 	l.lwz r3,0xffffffd0(r2)
    5554:	84 82 ff d4 	l.lwz r4,0xffffffd4(r2)
    5558:	d7 e2 1f 70 	l.sw 0xffffff70(r2),r3
    555c:	d7 e2 27 74 	l.sw 0xffffff74(r2),r4
    5560:	04 00 17 40 	l.jal b260 <___fixdfsi>
    5564:	15 00 00 00 	l.nop 0x0
    5568:	18 e0 00 00 	l.movhi r7,0x0
    556c:	a8 e7 cd d0 	l.ori r7,r7,0xcdd0
    5570:	84 62 ff 70 	l.lwz r3,0xffffff70(r2)
    5574:	84 82 ff 74 	l.lwz r4,0xffffff74(r2)
    5578:	84 a7 00 00 	l.lwz r5,0x0(r7)
    557c:	84 c7 00 04 	l.lwz r6,0x4(r7)
    5580:	04 00 16 3a 	l.jal ae68 <___ltdf2>
    5584:	ab 0b 00 00 	l.ori r24,r11,0x0
    5588:	bd 8b 00 00 	l.sfltsi r11,0x0
    558c:	10 00 03 1d 	l.bf 6200 <__dtoa_r+0xfa8>
    5590:	a8 72 00 00 	l.ori r3,r18,0x0
    5594:	9d 00 00 01 	l.addi r8,r0,0x1
    5598:	bc 58 00 16 	l.sfgtui r24,0x16
    559c:	10 00 00 11 	l.bf 55e0 <__dtoa_r+0x388>
    55a0:	d7 e2 47 ac 	l.sw 0xffffffac(r2),r8
    55a4:	b8 78 00 03 	l.slli r3,r24,0x3
    55a8:	18 80 00 00 	l.movhi r4,0x0
    55ac:	a8 84 ce b0 	l.ori r4,r4,0xceb0
    55b0:	84 a2 ff 98 	l.lwz r5,0xffffff98(r2)
    55b4:	84 c2 ff 9c 	l.lwz r6,0xffffff9c(r2)
    55b8:	e0 63 20 00 	l.add r3,r3,r4
    55bc:	84 83 00 04 	l.lwz r4,0x4(r3)
    55c0:	84 63 00 00 	l.lwz r3,0x0(r3)
    55c4:	04 00 15 e3 	l.jal ad50 <___gtdf2>
    55c8:	15 00 00 00 	l.nop 0x0
    55cc:	bd 4b 00 00 	l.sfgtsi r11,0x0
    55d0:	0c 00 00 03 	l.bnf 55dc <__dtoa_r+0x384>
    55d4:	9c a0 00 00 	l.addi r5,r0,0x0
    55d8:	9f 18 ff ff 	l.addi r24,r24,0xffffffff
    55dc:	d7 e2 2f ac 	l.sw 0xffffffac(r2),r5
    55e0:	84 62 ff c8 	l.lwz r3,0xffffffc8(r2)
    55e4:	e0 a3 70 02 	l.sub r5,r3,r14
    55e8:	9d 45 ff ff 	l.addi r10,r5,0xffffffff
    55ec:	bd 8a 00 00 	l.sfltsi r10,0x0
    55f0:	10 00 01 79 	l.bf 5bd4 <__dtoa_r+0x97c>
    55f4:	9c e0 00 00 	l.addi r7,r0,0x0
    55f8:	9c c0 00 00 	l.addi r6,r0,0x0
    55fc:	d7 e2 57 a4 	l.sw 0xffffffa4(r2),r10
    5600:	d7 e2 37 c0 	l.sw 0xffffffc0(r2),r6
    5604:	bd 98 00 00 	l.sfltsi r24,0x0
    5608:	10 00 01 6c 	l.bf 5bb8 <__dtoa_r+0x960>
    560c:	84 82 ff c0 	l.lwz r4,0xffffffc0(r2)
    5610:	85 02 ff a4 	l.lwz r8,0xffffffa4(r2)
    5614:	9c 60 00 00 	l.addi r3,r0,0x0
    5618:	e1 08 c0 00 	l.add r8,r8,r24
    561c:	d7 e2 1f bc 	l.sw 0xffffffbc(r2),r3
    5620:	d7 e2 47 a4 	l.sw 0xffffffa4(r2),r8
    5624:	d7 e2 c7 a0 	l.sw 0xffffffa0(r2),r24
    5628:	bc ba 00 09 	l.sfleui r26,0x9
    562c:	10 00 00 04 	l.bf 563c <__dtoa_r+0x3e4>
    5630:	bd ba 00 05 	l.sflesi r26,0x5
    5634:	9f 40 00 00 	l.addi r26,r0,0x0
    5638:	bd ba 00 05 	l.sflesi r26,0x5
    563c:	10 00 00 04 	l.bf 564c <__dtoa_r+0x3f4>
    5640:	9d 80 00 01 	l.addi r12,r0,0x1
    5644:	9f 5a ff fc 	l.addi r26,r26,0xfffffffc
    5648:	9d 80 00 00 	l.addi r12,r0,0x0
    564c:	9f 80 ff ff 	l.addi r28,r0,0xffffffff
    5650:	9c e0 00 01 	l.addi r7,r0,0x1
    5654:	d7 e2 e7 b4 	l.sw 0xffffffb4(r2),r28
    5658:	bc 5a 00 05 	l.sfgtui r26,0x5
    565c:	10 00 00 14 	l.bf 56ac <__dtoa_r+0x454>
    5660:	d7 e2 3f a8 	l.sw 0xffffffa8(r2),r7
    5664:	b8 7a 00 02 	l.slli r3,r26,0x2
    5668:	19 00 00 00 	l.movhi r8,0x0
    566c:	a9 08 ce 28 	l.ori r8,r8,0xce28
    5670:	e0 63 40 00 	l.add r3,r3,r8
    5674:	84 63 00 00 	l.lwz r3,0x0(r3)
    5678:	44 00 18 00 	l.jr r3
    567c:	15 00 00 00 	l.nop 0x0
    5680:	9c 80 00 00 	l.addi r4,r0,0x0
    5684:	d7 e2 27 a8 	l.sw 0xffffffa8(r2),r4
    5688:	84 a2 ff c4 	l.lwz r5,0xffffffc4(r2)
    568c:	bd 45 00 00 	l.sfgtsi r5,0x0
    5690:	10 00 00 05 	l.bf 56a4 <__dtoa_r+0x44c>
    5694:	85 c2 ff c4 	l.lwz r14,0xffffffc4(r2)
    5698:	9c c0 00 01 	l.addi r6,r0,0x1
    569c:	d7 e2 37 c4 	l.sw 0xffffffc4(r2),r6
    56a0:	85 c2 ff c4 	l.lwz r14,0xffffffc4(r2)
    56a4:	d7 e2 77 b4 	l.sw 0xffffffb4(r2),r14
    56a8:	ab 8e 00 00 	l.ori r28,r14,0x0
    56ac:	9c 60 00 00 	l.addi r3,r0,0x0
    56b0:	9d 40 00 04 	l.addi r10,r0,0x4
    56b4:	bc 8e 00 18 	l.sfltui r14,0x18
    56b8:	10 00 00 09 	l.bf 56dc <__dtoa_r+0x484>
    56bc:	d4 14 18 44 	l.sw 0x44(r20),r3
    56c0:	a8 83 00 00 	l.ori r4,r3,0x0
    56c4:	b9 4a 00 01 	l.slli r10,r10,0x1
    56c8:	9c 6a 00 14 	l.addi r3,r10,0x14
    56cc:	e4 43 70 00 	l.sfgtu r3,r14
    56d0:	0f ff ff fd 	l.bnf 56c4 <__dtoa_r+0x46c>
    56d4:	9c 84 00 01 	l.addi r4,r4,0x1
    56d8:	d4 14 20 44 	l.sw 0x44(r20),r4
    56dc:	84 94 00 44 	l.lwz r4,0x44(r20)
    56e0:	04 00 0a 70 	l.jal 80a0 <__Balloc>
    56e4:	a8 74 00 00 	l.ori r3,r20,0x0
    56e8:	d7 e2 5f 64 	l.sw 0xffffff64(r2),r11
    56ec:	9c 80 00 00 	l.addi r4,r0,0x0
    56f0:	d4 14 58 40 	l.sw 0x40(r20),r11
    56f4:	bc 5c 00 0e 	l.sfgtui r28,0xe
    56f8:	10 00 00 03 	l.bf 5704 <__dtoa_r+0x4ac>
    56fc:	aa cb 00 00 	l.ori r22,r11,0x0
    5700:	9c 80 00 01 	l.addi r4,r0,0x1
    5704:	bc 0c 00 00 	l.sfeqi r12,0x0
    5708:	10 00 00 03 	l.bf 5714 <__dtoa_r+0x4bc>
    570c:	9c 60 00 00 	l.addi r3,r0,0x0
    5710:	9c 60 00 01 	l.addi r3,r0,0x1
    5714:	e0 64 18 03 	l.and r3,r4,r3
    5718:	bc 03 00 00 	l.sfeqi r3,0x0
    571c:	10 00 00 e9 	l.bf 5ac0 <__dtoa_r+0x868>
    5720:	84 82 ff cc 	l.lwz r4,0xffffffcc(r2)
    5724:	84 82 ff 98 	l.lwz r4,0xffffff98(r2)
    5728:	84 a2 ff 9c 	l.lwz r5,0xffffff9c(r2)
    572c:	d7 e2 c7 b0 	l.sw 0xffffffb0(r2),r24
    5730:	d7 e2 e7 b8 	l.sw 0xffffffb8(r2),r28
    5734:	bd b8 00 00 	l.sflesi r24,0x0
    5738:	d7 e2 27 90 	l.sw 0xffffff90(r2),r4
    573c:	d7 e2 2f 94 	l.sw 0xffffff94(r2),r5
    5740:	0c 00 02 62 	l.bnf 60c8 <__dtoa_r+0xe70>
    5744:	9d c0 00 02 	l.addi r14,r0,0x2
    5748:	e2 00 c0 02 	l.sub r16,r0,r24
    574c:	bc 10 00 00 	l.sfeqi r16,0x0
    5750:	0c 00 04 1f 	l.bnf 67cc <__dtoa_r+0x1574>
    5754:	a4 70 00 0f 	l.andi r3,r16,0xf
    5758:	84 82 ff ac 	l.lwz r4,0xffffffac(r2)
    575c:	bc 04 00 00 	l.sfeqi r4,0x0
    5760:	10 00 00 2a 	l.bf 5808 <__dtoa_r+0x5b0>
    5764:	15 00 00 00 	l.nop 0x0
    5768:	18 a0 00 00 	l.movhi r5,0x0
    576c:	a8 a5 ce 00 	l.ori r5,r5,0xce00
    5770:	84 62 ff 98 	l.lwz r3,0xffffff98(r2)
    5774:	84 82 ff 9c 	l.lwz r4,0xffffff9c(r2)
    5778:	84 c5 00 04 	l.lwz r6,0x4(r5)
    577c:	84 a5 00 00 	l.lwz r5,0x0(r5)
    5780:	04 00 15 ba 	l.jal ae68 <___ltdf2>
    5784:	15 00 00 00 	l.nop 0x0
    5788:	bd 8b 00 00 	l.sfltsi r11,0x0
    578c:	0c 00 00 03 	l.bnf 5798 <__dtoa_r+0x540>
    5790:	9c 80 00 00 	l.addi r4,r0,0x0
    5794:	9c 80 00 01 	l.addi r4,r0,0x1
    5798:	9c 60 00 00 	l.addi r3,r0,0x0
    579c:	e5 bc 18 00 	l.sfles r28,r3
    57a0:	10 00 00 04 	l.bf 57b0 <__dtoa_r+0x558>
    57a4:	e0 64 18 03 	l.and r3,r4,r3
    57a8:	9c 60 00 01 	l.addi r3,r0,0x1
    57ac:	e0 64 18 03 	l.and r3,r4,r3
    57b0:	bc 03 00 00 	l.sfeqi r3,0x0
    57b4:	10 00 00 16 	l.bf 580c <__dtoa_r+0x5b4>
    57b8:	a8 8e 00 00 	l.ori r4,r14,0x0
    57bc:	84 a2 ff b4 	l.lwz r5,0xffffffb4(r2)
    57c0:	bd 45 00 00 	l.sfgtsi r5,0x0
    57c4:	0c 00 00 b7 	l.bnf 5aa0 <__dtoa_r+0x848>
    57c8:	15 00 00 00 	l.nop 0x0
    57cc:	18 e0 00 00 	l.movhi r7,0x0
    57d0:	a8 e7 ce 08 	l.ori r7,r7,0xce08
    57d4:	84 a2 ff 98 	l.lwz r5,0xffffff98(r2)
    57d8:	84 c2 ff 9c 	l.lwz r6,0xffffff9c(r2)
    57dc:	85 07 00 04 	l.lwz r8,0x4(r7)
    57e0:	84 e7 00 00 	l.lwz r7,0x0(r7)
    57e4:	04 00 12 6a 	l.jal a18c <___muldf3>
    57e8:	a8 72 00 00 	l.ori r3,r18,0x0
    57ec:	87 82 ff b4 	l.lwz r28,0xffffffb4(r2)
    57f0:	84 c2 ff d0 	l.lwz r6,0xffffffd0(r2)
    57f4:	84 e2 ff d4 	l.lwz r7,0xffffffd4(r2)
    57f8:	9f 18 ff ff 	l.addi r24,r24,0xffffffff
    57fc:	9d ce 00 01 	l.addi r14,r14,0x1
    5800:	d7 e2 37 98 	l.sw 0xffffff98(r2),r6
    5804:	d7 e2 3f 9c 	l.sw 0xffffff9c(r2),r7
    5808:	a8 8e 00 00 	l.ori r4,r14,0x0
    580c:	04 00 15 fe 	l.jal b004 <___floatsidf>
    5810:	a8 72 00 00 	l.ori r3,r18,0x0
    5814:	84 e2 ff 98 	l.lwz r7,0xffffff98(r2)
    5818:	85 02 ff 9c 	l.lwz r8,0xffffff9c(r2)
    581c:	84 a2 ff d0 	l.lwz r5,0xffffffd0(r2)
    5820:	84 c2 ff d4 	l.lwz r6,0xffffffd4(r2)
    5824:	04 00 12 5a 	l.jal a18c <___muldf3>
    5828:	9c 62 ff d8 	l.addi r3,r2,0xffffffd8
    582c:	18 e0 00 00 	l.movhi r7,0x0
    5830:	a8 e7 ce 10 	l.ori r7,r7,0xce10
    5834:	85 07 00 04 	l.lwz r8,0x4(r7)
    5838:	84 e7 00 00 	l.lwz r7,0x0(r7)
    583c:	84 a2 ff d8 	l.lwz r5,0xffffffd8(r2)
    5840:	84 c2 ff dc 	l.lwz r6,0xffffffdc(r2)
    5844:	04 00 12 09 	l.jal a068 <___adddf3>
    5848:	9c 62 ff e0 	l.addi r3,r2,0xffffffe0
    584c:	84 e2 ff e0 	l.lwz r7,0xffffffe0(r2)
    5850:	85 02 ff e4 	l.lwz r8,0xffffffe4(r2)
    5854:	d7 e2 3f 88 	l.sw 0xffffff88(r2),r7
    5858:	d7 e2 47 8c 	l.sw 0xffffff8c(r2),r8
    585c:	85 02 ff 88 	l.lwz r8,0xffffff88(r2)
    5860:	18 60 fc c0 	l.movhi r3,0xfcc0
    5864:	a8 63 00 00 	l.ori r3,r3,0x0
    5868:	bc 3c 00 00 	l.sfnei r28,0x0
    586c:	e1 08 18 00 	l.add r8,r8,r3
    5870:	0c 00 00 68 	l.bnf 5a10 <__dtoa_r+0x7b8>
    5874:	d7 e2 47 88 	l.sw 0xffffff88(r2),r8
    5878:	84 c2 ff a8 	l.lwz r6,0xffffffa8(r2)
    587c:	bc 06 00 00 	l.sfeqi r6,0x0
    5880:	10 00 02 ec 	l.bf 6430 <__dtoa_r+0x11d8>
    5884:	b8 bc 00 03 	l.slli r5,r28,0x3
    5888:	b8 fc 00 03 	l.slli r7,r28,0x3
    588c:	19 00 00 00 	l.movhi r8,0x0
    5890:	a9 08 ce a8 	l.ori r8,r8,0xcea8
    5894:	18 a0 00 00 	l.movhi r5,0x0
    5898:	a8 a5 ce 20 	l.ori r5,r5,0xce20
    589c:	e0 e7 40 00 	l.add r7,r7,r8
    58a0:	84 c5 00 04 	l.lwz r6,0x4(r5)
    58a4:	84 a5 00 00 	l.lwz r5,0x0(r5)
    58a8:	85 07 00 04 	l.lwz r8,0x4(r7)
    58ac:	84 e7 00 00 	l.lwz r7,0x0(r7)
    58b0:	04 00 13 a9 	l.jal a754 <___divdf3>
    58b4:	a8 72 00 00 	l.ori r3,r18,0x0
    58b8:	84 e2 ff 88 	l.lwz r7,0xffffff88(r2)
    58bc:	85 02 ff 8c 	l.lwz r8,0xffffff8c(r2)
    58c0:	84 a2 ff d0 	l.lwz r5,0xffffffd0(r2)
    58c4:	84 c2 ff d4 	l.lwz r6,0xffffffd4(r2)
    58c8:	04 00 12 0b 	l.jal a0f4 <___subdf3>
    58cc:	9c 62 ff d8 	l.addi r3,r2,0xffffffd8
    58d0:	84 62 ff d8 	l.lwz r3,0xffffffd8(r2)
    58d4:	84 82 ff dc 	l.lwz r4,0xffffffdc(r2)
    58d8:	1a 00 00 00 	l.movhi r16,0x0
    58dc:	aa 10 ce 00 	l.ori r16,r16,0xce00
    58e0:	19 80 00 00 	l.movhi r12,0x0
    58e4:	a9 8c ce 08 	l.ori r12,r12,0xce08
    58e8:	d7 e2 1f 88 	l.sw 0xffffff88(r2),r3
    58ec:	d7 e2 27 8c 	l.sw 0xffffff8c(r2),r4
    58f0:	00 00 00 29 	l.j 5994 <__dtoa_r+0x73c>
    58f4:	9d c0 00 00 	l.addi r14,r0,0x0
    58f8:	84 b0 00 00 	l.lwz r5,0x0(r16)
    58fc:	84 d0 00 04 	l.lwz r6,0x4(r16)
    5900:	84 e2 ff 54 	l.lwz r7,0xffffff54(r2)
    5904:	85 02 ff 58 	l.lwz r8,0xffffff58(r2)
    5908:	04 00 11 fb 	l.jal a0f4 <___subdf3>
    590c:	a8 72 00 00 	l.ori r3,r18,0x0
    5910:	84 62 ff d0 	l.lwz r3,0xffffffd0(r2)
    5914:	84 82 ff d4 	l.lwz r4,0xffffffd4(r2)
    5918:	84 a2 ff 88 	l.lwz r5,0xffffff88(r2)
    591c:	84 c2 ff 8c 	l.lwz r6,0xffffff8c(r2)
    5920:	04 00 15 52 	l.jal ae68 <___ltdf2>
    5924:	15 00 00 00 	l.nop 0x0
    5928:	bd 8b 00 00 	l.sfltsi r11,0x0
    592c:	10 00 01 d4 	l.bf 607c <__dtoa_r+0xe24>
    5930:	15 00 00 00 	l.nop 0x0
    5934:	9d ce 00 01 	l.addi r14,r14,0x1
    5938:	e5 8e e0 00 	l.sflts r14,r28
    593c:	0c 00 00 59 	l.bnf 5aa0 <__dtoa_r+0x848>
    5940:	15 00 00 00 	l.nop 0x0
    5944:	84 a2 ff 88 	l.lwz r5,0xffffff88(r2)
    5948:	84 c2 ff 8c 	l.lwz r6,0xffffff8c(r2)
    594c:	84 ec 00 00 	l.lwz r7,0x0(r12)
    5950:	85 0c 00 04 	l.lwz r8,0x4(r12)
    5954:	04 00 12 0e 	l.jal a18c <___muldf3>
    5958:	9c 62 ff d8 	l.addi r3,r2,0xffffffd8
    595c:	84 e2 ff d8 	l.lwz r7,0xffffffd8(r2)
    5960:	85 02 ff dc 	l.lwz r8,0xffffffdc(r2)
    5964:	d7 e2 3f 88 	l.sw 0xffffff88(r2),r7
    5968:	d7 e2 47 8c 	l.sw 0xffffff8c(r2),r8
    596c:	84 a2 ff 54 	l.lwz r5,0xffffff54(r2)
    5970:	84 c2 ff 58 	l.lwz r6,0xffffff58(r2)
    5974:	84 ec 00 00 	l.lwz r7,0x0(r12)
    5978:	85 0c 00 04 	l.lwz r8,0x4(r12)
    597c:	04 00 12 04 	l.jal a18c <___muldf3>
    5980:	a8 72 00 00 	l.ori r3,r18,0x0
    5984:	84 62 ff d0 	l.lwz r3,0xffffffd0(r2)
    5988:	84 82 ff d4 	l.lwz r4,0xffffffd4(r2)
    598c:	d7 e2 1f 98 	l.sw 0xffffff98(r2),r3
    5990:	d7 e2 27 9c 	l.sw 0xffffff9c(r2),r4
    5994:	84 62 ff 98 	l.lwz r3,0xffffff98(r2)
    5998:	84 82 ff 9c 	l.lwz r4,0xffffff9c(r2)
    599c:	04 00 16 31 	l.jal b260 <___fixdfsi>
    59a0:	15 00 00 00 	l.nop 0x0
    59a4:	a9 4b 00 00 	l.ori r10,r11,0x0
    59a8:	a8 8b 00 00 	l.ori r4,r11,0x0
    59ac:	04 00 15 96 	l.jal b004 <___floatsidf>
    59b0:	a8 72 00 00 	l.ori r3,r18,0x0
    59b4:	84 a2 ff 98 	l.lwz r5,0xffffff98(r2)
    59b8:	84 c2 ff 9c 	l.lwz r6,0xffffff9c(r2)
    59bc:	84 e2 ff d0 	l.lwz r7,0xffffffd0(r2)
    59c0:	85 02 ff d4 	l.lwz r8,0xffffffd4(r2)
    59c4:	04 00 11 cc 	l.jal a0f4 <___subdf3>
    59c8:	9c 62 ff d8 	l.addi r3,r2,0xffffffd8
    59cc:	84 a2 ff d8 	l.lwz r5,0xffffffd8(r2)
    59d0:	84 c2 ff dc 	l.lwz r6,0xffffffdc(r2)
    59d4:	9c 8a 00 30 	l.addi r4,r10,0x30
    59d8:	d7 e2 2f 54 	l.sw 0xffffff54(r2),r5
    59dc:	d7 e2 37 58 	l.sw 0xffffff58(r2),r6
    59e0:	d8 16 20 00 	l.sb 0x0(r22),r4
    59e4:	84 62 ff 54 	l.lwz r3,0xffffff54(r2)
    59e8:	84 82 ff 58 	l.lwz r4,0xffffff58(r2)
    59ec:	84 a2 ff 88 	l.lwz r5,0xffffff88(r2)
    59f0:	84 c2 ff 8c 	l.lwz r6,0xffffff8c(r2)
    59f4:	04 00 15 1d 	l.jal ae68 <___ltdf2>
    59f8:	9e d6 00 01 	l.addi r22,r22,0x1
    59fc:	bd 8b 00 00 	l.sfltsi r11,0x0
    5a00:	0f ff ff be 	l.bnf 58f8 <__dtoa_r+0x6a0>
    5a04:	a8 74 00 00 	l.ori r3,r20,0x0
    5a08:	00 00 01 34 	l.j 5ed8 <__dtoa_r+0xc80>
    5a0c:	15 00 00 00 	l.nop 0x0
    5a10:	18 e0 00 00 	l.movhi r7,0x0
    5a14:	a8 e7 ce 18 	l.ori r7,r7,0xce18
    5a18:	84 a2 ff 98 	l.lwz r5,0xffffff98(r2)
    5a1c:	84 c2 ff 9c 	l.lwz r6,0xffffff9c(r2)
    5a20:	85 07 00 04 	l.lwz r8,0x4(r7)
    5a24:	84 e7 00 00 	l.lwz r7,0x0(r7)
    5a28:	04 00 11 b3 	l.jal a0f4 <___subdf3>
    5a2c:	a8 72 00 00 	l.ori r3,r18,0x0
    5a30:	84 82 ff d0 	l.lwz r4,0xffffffd0(r2)
    5a34:	84 a2 ff d4 	l.lwz r5,0xffffffd4(r2)
    5a38:	d7 e2 27 5c 	l.sw 0xffffff5c(r2),r4
    5a3c:	d7 e2 2f 60 	l.sw 0xffffff60(r2),r5
    5a40:	9c a0 00 00 	l.addi r5,r0,0x0
    5a44:	84 62 ff 5c 	l.lwz r3,0xffffff5c(r2)
    5a48:	84 82 ff 60 	l.lwz r4,0xffffff60(r2)
    5a4c:	d7 e2 2f 7c 	l.sw 0xffffff7c(r2),r5
    5a50:	84 a2 ff 88 	l.lwz r5,0xffffff88(r2)
    5a54:	84 c2 ff 8c 	l.lwz r6,0xffffff8c(r2)
    5a58:	04 00 14 be 	l.jal ad50 <___gtdf2>
    5a5c:	15 00 00 00 	l.nop 0x0
    5a60:	84 c2 ff 7c 	l.lwz r6,0xffffff7c(r2)
    5a64:	bd 4b 00 00 	l.sfgtsi r11,0x0
    5a68:	10 00 00 4e 	l.bf 5ba0 <__dtoa_r+0x948>
    5a6c:	d7 e2 37 78 	l.sw 0xffffff78(r2),r6
    5a70:	84 a2 ff 8c 	l.lwz r5,0xffffff8c(r2)
    5a74:	19 00 80 00 	l.movhi r8,0x8000
    5a78:	a9 08 00 00 	l.ori r8,r8,0x0
    5a7c:	84 e2 ff 88 	l.lwz r7,0xffffff88(r2)
    5a80:	a8 85 00 00 	l.ori r4,r5,0x0
    5a84:	84 a2 ff 5c 	l.lwz r5,0xffffff5c(r2)
    5a88:	84 c2 ff 60 	l.lwz r6,0xffffff60(r2)
    5a8c:	04 00 14 b1 	l.jal ad50 <___gtdf2>
    5a90:	e0 67 40 05 	l.xor r3,r7,r8
    5a94:	bd 4b 00 00 	l.sfgtsi r11,0x0
    5a98:	10 00 00 f6 	l.bf 5e70 <__dtoa_r+0xc18>
    5a9c:	84 82 ff c4 	l.lwz r4,0xffffffc4(r2)
    5aa0:	87 02 ff b0 	l.lwz r24,0xffffffb0(r2)
    5aa4:	84 62 ff 90 	l.lwz r3,0xffffff90(r2)
    5aa8:	84 82 ff 94 	l.lwz r4,0xffffff94(r2)
    5aac:	d7 e2 1f 98 	l.sw 0xffffff98(r2),r3
    5ab0:	d7 e2 27 9c 	l.sw 0xffffff9c(r2),r4
    5ab4:	87 82 ff b8 	l.lwz r28,0xffffffb8(r2)
    5ab8:	86 c2 ff 64 	l.lwz r22,0xffffff64(r2)
    5abc:	84 82 ff cc 	l.lwz r4,0xffffffcc(r2)
    5ac0:	9c a0 00 00 	l.addi r5,r0,0x0
    5ac4:	e5 84 28 00 	l.sflts r4,r5
    5ac8:	10 00 00 03 	l.bf 5ad4 <__dtoa_r+0x87c>
    5acc:	bd 58 00 0e 	l.sfgtsi r24,0xe
    5ad0:	9c a0 00 01 	l.addi r5,r0,0x1
    5ad4:	10 00 00 03 	l.bf 5ae0 <__dtoa_r+0x888>
    5ad8:	9c 60 00 00 	l.addi r3,r0,0x0
    5adc:	9c 60 00 01 	l.addi r3,r0,0x1
    5ae0:	e0 65 18 03 	l.and r3,r5,r3
    5ae4:	bc 03 00 00 	l.sfeqi r3,0x0
    5ae8:	10 00 00 5f 	l.bf 5c64 <__dtoa_r+0xa0c>
    5aec:	84 62 ff a8 	l.lwz r3,0xffffffa8(r2)
    5af0:	b8 78 00 03 	l.slli r3,r24,0x3
    5af4:	18 c0 00 00 	l.movhi r6,0x0
    5af8:	a8 c6 ce b0 	l.ori r6,r6,0xceb0
    5afc:	84 a2 ff c4 	l.lwz r5,0xffffffc4(r2)
    5b00:	9c 80 00 00 	l.addi r4,r0,0x0
    5b04:	e0 63 30 00 	l.add r3,r3,r6
    5b08:	e5 65 20 00 	l.sfges r5,r4
    5b0c:	84 e3 00 00 	l.lwz r7,0x0(r3)
    5b10:	85 03 00 04 	l.lwz r8,0x4(r3)
    5b14:	d7 e2 3f 70 	l.sw 0xffffff70(r2),r7
    5b18:	d7 e2 47 74 	l.sw 0xffffff74(r2),r8
    5b1c:	0c 00 01 a8 	l.bnf 61bc <__dtoa_r+0xf64>
    5b20:	15 00 00 00 	l.nop 0x0
    5b24:	9c 60 00 00 	l.addi r3,r0,0x0
    5b28:	e5 5c 18 00 	l.sfgts r28,r3
    5b2c:	10 00 00 04 	l.bf 5b3c <__dtoa_r+0x8e4>
    5b30:	e0 64 18 03 	l.and r3,r4,r3
    5b34:	9c 60 00 01 	l.addi r3,r0,0x1
    5b38:	e0 64 18 03 	l.and r3,r4,r3
    5b3c:	bc 03 00 00 	l.sfeqi r3,0x0
    5b40:	10 00 01 10 	l.bf 5f80 <__dtoa_r+0xd28>
    5b44:	9d c0 00 01 	l.addi r14,r0,0x1
    5b48:	9d 00 00 00 	l.addi r8,r0,0x0
    5b4c:	d7 e2 47 7c 	l.sw 0xffffff7c(r2),r8
    5b50:	e5 9c 40 00 	l.sflts r28,r8
    5b54:	10 00 00 c6 	l.bf 5e6c <__dtoa_r+0xc14>
    5b58:	d7 e2 47 78 	l.sw 0xffffff78(r2),r8
    5b5c:	18 e0 00 00 	l.movhi r7,0x0
    5b60:	a8 e7 ce 18 	l.ori r7,r7,0xce18
    5b64:	84 a2 ff 70 	l.lwz r5,0xffffff70(r2)
    5b68:	84 c2 ff 74 	l.lwz r6,0xffffff74(r2)
    5b6c:	85 07 00 04 	l.lwz r8,0x4(r7)
    5b70:	84 e7 00 00 	l.lwz r7,0x0(r7)
    5b74:	04 00 11 86 	l.jal a18c <___muldf3>
    5b78:	a8 72 00 00 	l.ori r3,r18,0x0
    5b7c:	84 a2 ff 98 	l.lwz r5,0xffffff98(r2)
    5b80:	84 c2 ff 9c 	l.lwz r6,0xffffff9c(r2)
    5b84:	84 62 ff d0 	l.lwz r3,0xffffffd0(r2)
    5b88:	84 82 ff d4 	l.lwz r4,0xffffffd4(r2)
    5b8c:	04 00 14 94 	l.jal addc <___gedf2>
    5b90:	15 00 00 00 	l.nop 0x0
    5b94:	bd 6b 00 00 	l.sfgesi r11,0x0
    5b98:	10 00 00 b6 	l.bf 5e70 <__dtoa_r+0xc18>
    5b9c:	84 82 ff c4 	l.lwz r4,0xffffffc4(r2)
    5ba0:	84 a2 ff 64 	l.lwz r5,0xffffff64(r2)
    5ba4:	9c c0 00 31 	l.addi r6,r0,0x31
    5ba8:	9f 18 00 01 	l.addi r24,r24,0x1
    5bac:	d8 05 30 00 	l.sb 0x0(r5),r6
    5bb0:	00 00 00 b1 	l.j 5e74 <__dtoa_r+0xc1c>
    5bb4:	9e c5 00 01 	l.addi r22,r5,0x1
    5bb8:	e0 a0 c0 02 	l.sub r5,r0,r24
    5bbc:	9c c0 00 00 	l.addi r6,r0,0x0
    5bc0:	e0 84 c0 02 	l.sub r4,r4,r24
    5bc4:	d7 e2 2f bc 	l.sw 0xffffffbc(r2),r5
    5bc8:	d7 e2 27 c0 	l.sw 0xffffffc0(r2),r4
    5bcc:	03 ff fe 97 	l.j 5628 <__dtoa_r+0x3d0>
    5bd0:	d7 e2 37 a0 	l.sw 0xffffffa0(r2),r6
    5bd4:	e1 40 50 02 	l.sub r10,r0,r10
    5bd8:	d7 e2 57 c0 	l.sw 0xffffffc0(r2),r10
    5bdc:	03 ff fe 8a 	l.j 5604 <__dtoa_r+0x3ac>
    5be0:	d7 e2 3f a4 	l.sw 0xffffffa4(r2),r7
    5be4:	84 62 ff c8 	l.lwz r3,0xffffffc8(r2)
    5be8:	84 82 ff cc 	l.lwz r4,0xffffffcc(r2)
    5bec:	e0 63 20 00 	l.add r3,r3,r4
    5bf0:	9d c3 04 32 	l.addi r14,r3,0x432
    5bf4:	bd ae 00 20 	l.sflesi r14,0x20
    5bf8:	0c 00 00 c5 	l.bnf 5f0c <__dtoa_r+0xcb4>
    5bfc:	9c 83 04 12 	l.addi r4,r3,0x412
    5c00:	9c 60 00 20 	l.addi r3,r0,0x20
    5c04:	e0 83 70 02 	l.sub r4,r3,r14
    5c08:	84 62 ff 9c 	l.lwz r3,0xffffff9c(r2)
    5c0c:	e1 43 20 08 	l.sll r10,r3,r4
    5c10:	9d 82 ff f8 	l.addi r12,r2,0xfffffff8
    5c14:	a8 8a 00 00 	l.ori r4,r10,0x0
    5c18:	04 00 14 fb 	l.jal b004 <___floatsidf>
    5c1c:	a8 6c 00 00 	l.ori r3,r12,0x0
    5c20:	bd 6a 00 00 	l.sfgesi r10,0x0
    5c24:	84 a2 ff f8 	l.lwz r5,0xfffffff8(r2)
    5c28:	84 c2 ff fc 	l.lwz r6,0xfffffffc(r2)
    5c2c:	0c 00 01 f6 	l.bnf 6404 <__dtoa_r+0x11ac>
    5c30:	15 00 00 00 	l.nop 0x0
    5c34:	9d 42 ff f0 	l.addi r10,r2,0xfffffff0
    5c38:	d7 e2 2f 90 	l.sw 0xffffff90(r2),r5
    5c3c:	d7 e2 37 94 	l.sw 0xffffff94(r2),r6
    5c40:	84 82 ff 90 	l.lwz r4,0xffffff90(r2)
    5c44:	18 a0 fe 10 	l.movhi r5,0xfe10
    5c48:	a8 a5 00 00 	l.ori r5,r5,0x0
    5c4c:	9c c0 00 01 	l.addi r6,r0,0x1
    5c50:	e0 84 28 00 	l.add r4,r4,r5
    5c54:	9d ce fb cd 	l.addi r14,r14,0xfffffbcd
    5c58:	d7 e2 27 90 	l.sw 0xffffff90(r2),r4
    5c5c:	03 ff fe 0f 	l.j 5498 <__dtoa_r+0x240>
    5c60:	d7 e2 37 84 	l.sw 0xffffff84(r2),r6
    5c64:	9d 00 00 00 	l.addi r8,r0,0x0
    5c68:	85 82 ff c0 	l.lwz r12,0xffffffc0(r2)
    5c6c:	e4 03 40 00 	l.sfeq r3,r8
    5c70:	86 02 ff bc 	l.lwz r16,0xffffffbc(r2)
    5c74:	d7 e2 47 7c 	l.sw 0xffffff7c(r2),r8
    5c78:	0c 00 01 3e 	l.bnf 6170 <__dtoa_r+0xf18>
    5c7c:	d7 e2 47 80 	l.sw 0xffffff80(r2),r8
    5c80:	9c 80 00 00 	l.addi r4,r0,0x0
    5c84:	e5 ac 20 00 	l.sfles r12,r4
    5c88:	10 00 00 03 	l.bf 5c94 <__dtoa_r+0xa3c>
    5c8c:	84 e2 ff a4 	l.lwz r7,0xffffffa4(r2)
    5c90:	9c 80 00 01 	l.addi r4,r0,0x1
    5c94:	9c 60 00 00 	l.addi r3,r0,0x0
    5c98:	e5 a7 18 00 	l.sfles r7,r3
    5c9c:	10 00 00 04 	l.bf 5cac <__dtoa_r+0xa54>
    5ca0:	e0 64 18 03 	l.and r3,r4,r3
    5ca4:	9c 60 00 01 	l.addi r3,r0,0x1
    5ca8:	e0 64 18 03 	l.and r3,r4,r3
    5cac:	bc 03 00 00 	l.sfeqi r3,0x0
    5cb0:	10 00 00 0e 	l.bf 5ce8 <__dtoa_r+0xa90>
    5cb4:	84 82 ff bc 	l.lwz r4,0xffffffbc(r2)
    5cb8:	85 c2 ff a4 	l.lwz r14,0xffffffa4(r2)
    5cbc:	e5 ae 60 00 	l.sfles r14,r12
    5cc0:	10 00 00 03 	l.bf 5ccc <__dtoa_r+0xa74>
    5cc4:	85 02 ff a4 	l.lwz r8,0xffffffa4(r2)
    5cc8:	a9 cc 00 00 	l.ori r14,r12,0x0
    5ccc:	e1 8c 70 02 	l.sub r12,r12,r14
    5cd0:	84 62 ff c0 	l.lwz r3,0xffffffc0(r2)
    5cd4:	e1 08 70 02 	l.sub r8,r8,r14
    5cd8:	e0 63 70 02 	l.sub r3,r3,r14
    5cdc:	d7 e2 47 a4 	l.sw 0xffffffa4(r2),r8
    5ce0:	d7 e2 1f c0 	l.sw 0xffffffc0(r2),r3
    5ce4:	84 82 ff bc 	l.lwz r4,0xffffffbc(r2)
    5ce8:	bd a4 00 00 	l.sflesi r4,0x0
    5cec:	10 00 00 0e 	l.bf 5d24 <__dtoa_r+0xacc>
    5cf0:	a8 74 00 00 	l.ori r3,r20,0x0
    5cf4:	84 a2 ff a8 	l.lwz r5,0xffffffa8(r2)
    5cf8:	bc 05 00 00 	l.sfeqi r5,0x0
    5cfc:	10 00 02 de 	l.bf 6874 <__dtoa_r+0x161c>
    5d00:	bd b0 00 00 	l.sflesi r16,0x0
    5d04:	0c 00 02 f9 	l.bnf 68e8 <__dtoa_r+0x1690>
    5d08:	84 82 ff 7c 	l.lwz r4,0xffffff7c(r2)
    5d0c:	84 c2 ff bc 	l.lwz r6,0xffffffbc(r2)
    5d10:	e1 46 80 02 	l.sub r10,r6,r16
    5d14:	bc 0a 00 00 	l.sfeqi r10,0x0
    5d18:	0c 00 02 f2 	l.bnf 68e0 <__dtoa_r+0x1688>
    5d1c:	a8 9e 00 00 	l.ori r4,r30,0x0
    5d20:	a8 74 00 00 	l.ori r3,r20,0x0
    5d24:	04 00 0a 25 	l.jal 85b8 <__i2b>
    5d28:	9c 80 00 01 	l.addi r4,r0,0x1
    5d2c:	84 e2 ff a0 	l.lwz r7,0xffffffa0(r2)
    5d30:	bd a7 00 00 	l.sflesi r7,0x0
    5d34:	0c 00 02 5c 	l.bnf 66a4 <__dtoa_r+0x144c>
    5d38:	d7 e2 5f 78 	l.sw 0xffffff78(r2),r11
    5d3c:	bd 5a 00 01 	l.sfgtsi r26,0x1
    5d40:	10 00 00 1a 	l.bf 5da8 <__dtoa_r+0xb50>
    5d44:	9d 40 00 00 	l.addi r10,r0,0x0
    5d48:	85 02 ff 9c 	l.lwz r8,0xffffff9c(r2)
    5d4c:	e4 28 50 00 	l.sfne r8,r10
    5d50:	10 00 00 17 	l.bf 5dac <__dtoa_r+0xb54>
    5d54:	84 82 ff a0 	l.lwz r4,0xffffffa0(r2)
    5d58:	84 82 ff 98 	l.lwz r4,0xffffff98(r2)
    5d5c:	18 a0 00 0f 	l.movhi r5,0xf
    5d60:	a8 a5 ff ff 	l.ori r5,r5,0xffff
    5d64:	e0 64 28 03 	l.and r3,r4,r5
    5d68:	e4 23 50 00 	l.sfne r3,r10
    5d6c:	10 00 00 0f 	l.bf 5da8 <__dtoa_r+0xb50>
    5d70:	15 00 00 00 	l.nop 0x0
    5d74:	18 e0 7f f0 	l.movhi r7,0x7ff0
    5d78:	a8 e7 00 00 	l.ori r7,r7,0x0
    5d7c:	e0 64 38 03 	l.and r3,r4,r7
    5d80:	e4 03 50 00 	l.sfeq r3,r10
    5d84:	10 00 00 0a 	l.bf 5dac <__dtoa_r+0xb54>
    5d88:	84 82 ff a0 	l.lwz r4,0xffffffa0(r2)
    5d8c:	85 02 ff c0 	l.lwz r8,0xffffffc0(r2)
    5d90:	9d 40 00 01 	l.addi r10,r0,0x1
    5d94:	84 62 ff a4 	l.lwz r3,0xffffffa4(r2)
    5d98:	9d 08 00 01 	l.addi r8,r8,0x1
    5d9c:	9c 63 00 01 	l.addi r3,r3,0x1
    5da0:	d7 e2 47 c0 	l.sw 0xffffffc0(r2),r8
    5da4:	d7 e2 1f a4 	l.sw 0xffffffa4(r2),r3
    5da8:	84 82 ff a0 	l.lwz r4,0xffffffa0(r2)
    5dac:	bc 04 00 00 	l.sfeqi r4,0x0
    5db0:	0c 00 02 34 	l.bnf 6680 <__dtoa_r+0x1428>
    5db4:	84 e2 ff a4 	l.lwz r7,0xffffffa4(r2)
    5db8:	9c 87 00 01 	l.addi r4,r7,0x1
    5dbc:	a5 c4 00 1f 	l.andi r14,r4,0x1f
    5dc0:	bc 0e 00 00 	l.sfeqi r14,0x0
    5dc4:	10 00 00 05 	l.bf 5dd8 <__dtoa_r+0xb80>
    5dc8:	bd ae 00 04 	l.sflesi r14,0x4
    5dcc:	9c 60 00 20 	l.addi r3,r0,0x20
    5dd0:	e1 c3 70 02 	l.sub r14,r3,r14
    5dd4:	bd ae 00 04 	l.sflesi r14,0x4
    5dd8:	10 00 01 23 	l.bf 6264 <__dtoa_r+0x100c>
    5ddc:	bd 4e 00 03 	l.sfgtsi r14,0x3
    5de0:	85 02 ff a4 	l.lwz r8,0xffffffa4(r2)
    5de4:	9d ce ff fc 	l.addi r14,r14,0xfffffffc
    5de8:	84 62 ff c0 	l.lwz r3,0xffffffc0(r2)
    5dec:	e1 08 70 00 	l.add r8,r8,r14
    5df0:	e0 63 70 00 	l.add r3,r3,r14
    5df4:	d7 e2 47 a4 	l.sw 0xffffffa4(r2),r8
    5df8:	d7 e2 1f c0 	l.sw 0xffffffc0(r2),r3
    5dfc:	e1 8c 70 00 	l.add r12,r12,r14
    5e00:	84 c2 ff c0 	l.lwz r6,0xffffffc0(r2)
    5e04:	bd a6 00 00 	l.sflesi r6,0x0
    5e08:	0c 00 02 19 	l.bnf 666c <__dtoa_r+0x1414>
    5e0c:	a8 9e 00 00 	l.ori r4,r30,0x0
    5e10:	84 e2 ff a4 	l.lwz r7,0xffffffa4(r2)
    5e14:	bd a7 00 00 	l.sflesi r7,0x0
    5e18:	0c 00 02 42 	l.bnf 6720 <__dtoa_r+0x14c8>
    5e1c:	84 82 ff 78 	l.lwz r4,0xffffff78(r2)
    5e20:	85 02 ff ac 	l.lwz r8,0xffffffac(r2)
    5e24:	bc 08 00 00 	l.sfeqi r8,0x0
    5e28:	0c 00 02 25 	l.bnf 66bc <__dtoa_r+0x1464>
    5e2c:	84 82 ff 78 	l.lwz r4,0xffffff78(r2)
    5e30:	9c 80 00 00 	l.addi r4,r0,0x0
    5e34:	e5 5c 20 00 	l.sfgts r28,r4
    5e38:	10 00 00 03 	l.bf 5e44 <__dtoa_r+0xbec>
    5e3c:	bd ba 00 02 	l.sflesi r26,0x2
    5e40:	9c 80 00 01 	l.addi r4,r0,0x1
    5e44:	10 00 00 03 	l.bf 5e50 <__dtoa_r+0xbf8>
    5e48:	9c 60 00 00 	l.addi r3,r0,0x0
    5e4c:	9c 60 00 01 	l.addi r3,r0,0x1
    5e50:	e0 64 18 03 	l.and r3,r4,r3
    5e54:	bc 03 00 00 	l.sfeqi r3,0x0
    5e58:	10 00 01 0d 	l.bf 628c <__dtoa_r+0x1034>
    5e5c:	84 e2 ff a8 	l.lwz r7,0xffffffa8(r2)
    5e60:	bd 9c 00 00 	l.sfltsi r28,0x0
    5e64:	0c 00 02 8a 	l.bnf 688c <__dtoa_r+0x1634>
    5e68:	84 82 ff 78 	l.lwz r4,0xffffff78(r2)
    5e6c:	84 82 ff c4 	l.lwz r4,0xffffffc4(r2)
    5e70:	af 04 ff ff 	l.xori r24,r4,0xffffffff
    5e74:	84 82 ff 78 	l.lwz r4,0xffffff78(r2)
    5e78:	04 00 08 c2 	l.jal 8180 <__Bfree>
    5e7c:	a8 74 00 00 	l.ori r3,r20,0x0
    5e80:	84 62 ff 7c 	l.lwz r3,0xffffff7c(r2)
    5e84:	bc 03 00 00 	l.sfeqi r3,0x0
    5e88:	10 00 00 13 	l.bf 5ed4 <__dtoa_r+0xc7c>
    5e8c:	84 a2 ff 80 	l.lwz r5,0xffffff80(r2)
    5e90:	9c 80 00 00 	l.addi r4,r0,0x0
    5e94:	e4 05 20 00 	l.sfeq r5,r4
    5e98:	10 00 00 03 	l.bf 5ea4 <__dtoa_r+0xc4c>
    5e9c:	84 c2 ff 80 	l.lwz r6,0xffffff80(r2)
    5ea0:	9c 80 00 01 	l.addi r4,r0,0x1
    5ea4:	84 e2 ff 7c 	l.lwz r7,0xffffff7c(r2)
    5ea8:	e4 06 38 00 	l.sfeq r6,r7
    5eac:	10 00 00 03 	l.bf 5eb8 <__dtoa_r+0xc60>
    5eb0:	9c 60 00 00 	l.addi r3,r0,0x0
    5eb4:	9c 60 00 01 	l.addi r3,r0,0x1
    5eb8:	e0 64 18 03 	l.and r3,r4,r3
    5ebc:	bc 03 00 00 	l.sfeqi r3,0x0
    5ec0:	0c 00 02 1d 	l.bnf 6734 <__dtoa_r+0x14dc>
    5ec4:	15 00 00 00 	l.nop 0x0
    5ec8:	84 82 ff 7c 	l.lwz r4,0xffffff7c(r2)
    5ecc:	04 00 08 ad 	l.jal 8180 <__Bfree>
    5ed0:	a8 74 00 00 	l.ori r3,r20,0x0
    5ed4:	a8 74 00 00 	l.ori r3,r20,0x0
    5ed8:	04 00 08 aa 	l.jal 8180 <__Bfree>
    5edc:	a8 9e 00 00 	l.ori r4,r30,0x0
    5ee0:	9d 00 00 00 	l.addi r8,r0,0x0
    5ee4:	9c 98 00 01 	l.addi r4,r24,0x1
    5ee8:	d8 16 40 00 	l.sb 0x0(r22),r8
    5eec:	84 62 00 08 	l.lwz r3,0x8(r2)
    5ef0:	84 a2 00 00 	l.lwz r5,0x0(r2)
    5ef4:	bc 03 00 00 	l.sfeqi r3,0x0
    5ef8:	10 00 00 03 	l.bf 5f04 <__dtoa_r+0xcac>
    5efc:	d4 05 20 00 	l.sw 0x0(r5),r4
    5f00:	d4 03 b0 00 	l.sw 0x0(r3),r22
    5f04:	00 00 02 c9 	l.j 6a28 <__dtoa_r+0x17d0>
    5f08:	85 62 ff 64 	l.lwz r11,0xffffff64(r2)
    5f0c:	84 e2 ff 9c 	l.lwz r7,0xffffff9c(r2)
    5f10:	9c 60 00 40 	l.addi r3,r0,0x40
    5f14:	e0 a7 20 48 	l.srl r5,r7,r4
    5f18:	85 02 ff 98 	l.lwz r8,0xffffff98(r2)
    5f1c:	e0 63 70 02 	l.sub r3,r3,r14
    5f20:	e0 88 18 08 	l.sll r4,r8,r3
    5f24:	03 ff ff 3b 	l.j 5c10 <__dtoa_r+0x9b8>
    5f28:	e1 44 28 04 	l.or r10,r4,r5
    5f2c:	18 e0 00 00 	l.movhi r7,0x0
    5f30:	a8 e7 ce 08 	l.ori r7,r7,0xce08
    5f34:	85 07 00 04 	l.lwz r8,0x4(r7)
    5f38:	84 e7 00 00 	l.lwz r7,0x0(r7)
    5f3c:	04 00 10 94 	l.jal a18c <___muldf3>
    5f40:	a8 72 00 00 	l.ori r3,r18,0x0
    5f44:	84 a2 ff d0 	l.lwz r5,0xffffffd0(r2)
    5f48:	84 c2 ff d4 	l.lwz r6,0xffffffd4(r2)
    5f4c:	18 e0 00 00 	l.movhi r7,0x0
    5f50:	a8 e7 cd d0 	l.ori r7,r7,0xcdd0
    5f54:	e0 65 00 04 	l.or r3,r5,r0
    5f58:	e0 86 00 04 	l.or r4,r6,r0
    5f5c:	d7 e2 2f 98 	l.sw 0xffffff98(r2),r5
    5f60:	d7 e2 37 9c 	l.sw 0xffffff9c(r2),r6
    5f64:	84 a7 00 00 	l.lwz r5,0x0(r7)
    5f68:	84 c7 00 04 	l.lwz r6,0x4(r7)
    5f6c:	04 00 13 33 	l.jal ac38 <___eqdf2>
    5f70:	15 00 00 00 	l.nop 0x0
    5f74:	bc 0b 00 00 	l.sfeqi r11,0x0
    5f78:	13 ff ff d7 	l.bf 5ed4 <__dtoa_r+0xc7c>
    5f7c:	9d ce 00 01 	l.addi r14,r14,0x1
    5f80:	84 a2 ff 98 	l.lwz r5,0xffffff98(r2)
    5f84:	84 c2 ff 9c 	l.lwz r6,0xffffff9c(r2)
    5f88:	84 e2 ff 70 	l.lwz r7,0xffffff70(r2)
    5f8c:	85 02 ff 74 	l.lwz r8,0xffffff74(r2)
    5f90:	04 00 11 f1 	l.jal a754 <___divdf3>
    5f94:	a8 72 00 00 	l.ori r3,r18,0x0
    5f98:	84 62 ff d0 	l.lwz r3,0xffffffd0(r2)
    5f9c:	84 82 ff d4 	l.lwz r4,0xffffffd4(r2)
    5fa0:	04 00 14 b0 	l.jal b260 <___fixdfsi>
    5fa4:	15 00 00 00 	l.nop 0x0
    5fa8:	a9 4b 00 00 	l.ori r10,r11,0x0
    5fac:	a8 8b 00 00 	l.ori r4,r11,0x0
    5fb0:	04 00 14 15 	l.jal b004 <___floatsidf>
    5fb4:	a8 72 00 00 	l.ori r3,r18,0x0
    5fb8:	84 a2 ff d0 	l.lwz r5,0xffffffd0(r2)
    5fbc:	84 c2 ff d4 	l.lwz r6,0xffffffd4(r2)
    5fc0:	84 e2 ff 70 	l.lwz r7,0xffffff70(r2)
    5fc4:	85 02 ff 74 	l.lwz r8,0xffffff74(r2)
    5fc8:	04 00 10 71 	l.jal a18c <___muldf3>
    5fcc:	9c 62 ff d8 	l.addi r3,r2,0xffffffd8
    5fd0:	84 a2 ff 98 	l.lwz r5,0xffffff98(r2)
    5fd4:	84 c2 ff 9c 	l.lwz r6,0xffffff9c(r2)
    5fd8:	84 e2 ff d8 	l.lwz r7,0xffffffd8(r2)
    5fdc:	85 02 ff dc 	l.lwz r8,0xffffffdc(r2)
    5fe0:	04 00 10 45 	l.jal a0f4 <___subdf3>
    5fe4:	9c 62 ff e0 	l.addi r3,r2,0xffffffe0
    5fe8:	9c 6a 00 30 	l.addi r3,r10,0x30
    5fec:	84 a2 ff e0 	l.lwz r5,0xffffffe0(r2)
    5ff0:	84 c2 ff e4 	l.lwz r6,0xffffffe4(r2)
    5ff4:	d8 16 18 00 	l.sb 0x0(r22),r3
    5ff8:	e4 2e e0 00 	l.sfne r14,r28
    5ffc:	13 ff ff cc 	l.bf 5f2c <__dtoa_r+0xcd4>
    6000:	9e d6 00 01 	l.addi r22,r22,0x1
    6004:	e0 e5 00 04 	l.or r7,r5,r0
    6008:	e1 06 00 04 	l.or r8,r6,r0
    600c:	04 00 10 17 	l.jal a068 <___adddf3>
    6010:	a8 72 00 00 	l.ori r3,r18,0x0
    6014:	84 62 ff d0 	l.lwz r3,0xffffffd0(r2)
    6018:	84 82 ff d4 	l.lwz r4,0xffffffd4(r2)
    601c:	d7 e2 1f 44 	l.sw 0xffffff44(r2),r3
    6020:	d7 e2 27 48 	l.sw 0xffffff48(r2),r4
    6024:	84 62 ff 70 	l.lwz r3,0xffffff70(r2)
    6028:	84 82 ff 74 	l.lwz r4,0xffffff74(r2)
    602c:	84 a2 ff 44 	l.lwz r5,0xffffff44(r2)
    6030:	84 c2 ff 48 	l.lwz r6,0xffffff48(r2)
    6034:	04 00 13 8d 	l.jal ae68 <___ltdf2>
    6038:	15 00 00 00 	l.nop 0x0
    603c:	bd 8b 00 00 	l.sfltsi r11,0x0
    6040:	10 00 00 0f 	l.bf 607c <__dtoa_r+0xe24>
    6044:	15 00 00 00 	l.nop 0x0
    6048:	84 62 ff 70 	l.lwz r3,0xffffff70(r2)
    604c:	84 82 ff 74 	l.lwz r4,0xffffff74(r2)
    6050:	84 a2 ff 44 	l.lwz r5,0xffffff44(r2)
    6054:	84 c2 ff 48 	l.lwz r6,0xffffff48(r2)
    6058:	04 00 12 f8 	l.jal ac38 <___eqdf2>
    605c:	15 00 00 00 	l.nop 0x0
    6060:	bc 0b 00 00 	l.sfeqi r11,0x0
    6064:	0f ff ff 9d 	l.bnf 5ed8 <__dtoa_r+0xc80>
    6068:	a8 74 00 00 	l.ori r3,r20,0x0
    606c:	a4 8a 00 01 	l.andi r4,r10,0x1
    6070:	bc 24 00 00 	l.sfnei r4,0x0
    6074:	0f ff ff 99 	l.bnf 5ed8 <__dtoa_r+0xc80>
    6078:	15 00 00 00 	l.nop 0x0
    607c:	9e d6 ff ff 	l.addi r22,r22,0xffffffff
    6080:	90 76 00 00 	l.lbs r3,0x0(r22)
    6084:	bc 23 00 39 	l.sfnei r3,0x39
    6088:	10 00 00 0a 	l.bf 60b0 <__dtoa_r+0xe58>
    608c:	15 00 00 00 	l.nop 0x0
    6090:	84 82 ff 64 	l.lwz r4,0xffffff64(r2)
    6094:	e4 36 20 00 	l.sfne r22,r4
    6098:	13 ff ff fa 	l.bf 6080 <__dtoa_r+0xe28>
    609c:	9e d6 ff ff 	l.addi r22,r22,0xffffffff
    60a0:	9e d6 00 01 	l.addi r22,r22,0x1
    60a4:	9c a0 00 30 	l.addi r5,r0,0x30
    60a8:	9f 18 00 01 	l.addi r24,r24,0x1
    60ac:	d8 16 28 00 	l.sb 0x0(r22),r5
    60b0:	8c 76 00 00 	l.lbz r3,0x0(r22)
    60b4:	a8 96 00 00 	l.ori r4,r22,0x0
    60b8:	9c 63 00 01 	l.addi r3,r3,0x1
    60bc:	9e d6 00 01 	l.addi r22,r22,0x1
    60c0:	03 ff ff 85 	l.j 5ed4 <__dtoa_r+0xc7c>
    60c4:	d8 04 18 00 	l.sb 0x0(r4),r3
    60c8:	b9 58 00 84 	l.srai r10,r24,0x4
    60cc:	a4 78 00 0f 	l.andi r3,r24,0xf
    60d0:	18 a0 00 00 	l.movhi r5,0x0
    60d4:	a8 a5 ce b0 	l.ori r5,r5,0xceb0
    60d8:	b8 8a 00 44 	l.srli r4,r10,0x4
    60dc:	b8 63 00 03 	l.slli r3,r3,0x3
    60e0:	a4 84 00 01 	l.andi r4,r4,0x1
    60e4:	e0 63 28 00 	l.add r3,r3,r5
    60e8:	bc 04 00 00 	l.sfeqi r4,0x0
    60ec:	84 c3 00 00 	l.lwz r6,0x0(r3)
    60f0:	84 e3 00 04 	l.lwz r7,0x4(r3)
    60f4:	d7 e2 37 70 	l.sw 0xffffff70(r2),r6
    60f8:	d7 e2 3f 74 	l.sw 0xffffff74(r2),r7
    60fc:	0c 00 01 a5 	l.bnf 6790 <__dtoa_r+0x1538>
    6100:	15 00 00 00 	l.nop 0x0
    6104:	bc 0a 00 00 	l.sfeqi r10,0x0
    6108:	10 00 00 4b 	l.bf 6234 <__dtoa_r+0xfdc>
    610c:	a4 6a 00 01 	l.andi r3,r10,0x1
    6110:	19 80 00 00 	l.movhi r12,0x0
    6114:	a9 8c ce 88 	l.ori r12,r12,0xce88
    6118:	00 00 00 08 	l.j 6138 <__dtoa_r+0xee0>
    611c:	bc 03 00 00 	l.sfeqi r3,0x0
    6120:	b9 4a 00 81 	l.srai r10,r10,0x1
    6124:	bc 0a 00 00 	l.sfeqi r10,0x0
    6128:	10 00 00 43 	l.bf 6234 <__dtoa_r+0xfdc>
    612c:	9d 8c 00 08 	l.addi r12,r12,0x8
    6130:	a4 6a 00 01 	l.andi r3,r10,0x1
    6134:	bc 03 00 00 	l.sfeqi r3,0x0
    6138:	13 ff ff fa 	l.bf 6120 <__dtoa_r+0xec8>
    613c:	15 00 00 00 	l.nop 0x0
    6140:	84 a2 ff 70 	l.lwz r5,0xffffff70(r2)
    6144:	84 c2 ff 74 	l.lwz r6,0xffffff74(r2)
    6148:	84 ec 00 00 	l.lwz r7,0x0(r12)
    614c:	85 0c 00 04 	l.lwz r8,0x4(r12)
    6150:	04 00 10 0f 	l.jal a18c <___muldf3>
    6154:	a8 72 00 00 	l.ori r3,r18,0x0
    6158:	84 62 ff d0 	l.lwz r3,0xffffffd0(r2)
    615c:	84 82 ff d4 	l.lwz r4,0xffffffd4(r2)
    6160:	d7 e2 1f 70 	l.sw 0xffffff70(r2),r3
    6164:	d7 e2 27 74 	l.sw 0xffffff74(r2),r4
    6168:	03 ff ff ee 	l.j 6120 <__dtoa_r+0xec8>
    616c:	9d ce 00 01 	l.addi r14,r14,0x1
    6170:	bd 5a 00 01 	l.sfgtsi r26,0x1
    6174:	10 00 01 75 	l.bf 6748 <__dtoa_r+0x14f0>
    6178:	84 c2 ff bc 	l.lwz r6,0xffffffbc(r2)
    617c:	84 a2 ff 84 	l.lwz r5,0xffffff84(r2)
    6180:	e4 05 40 00 	l.sfeq r5,r8
    6184:	10 00 01 cc 	l.bf 68b4 <__dtoa_r+0x165c>
    6188:	9c 60 00 36 	l.addi r3,r0,0x36
    618c:	9d c4 04 33 	l.addi r14,r4,0x433
    6190:	84 a2 ff a4 	l.lwz r5,0xffffffa4(r2)
    6194:	a8 74 00 00 	l.ori r3,r20,0x0
    6198:	9c 80 00 01 	l.addi r4,r0,0x1
    619c:	e0 a5 70 00 	l.add r5,r5,r14
    61a0:	04 00 09 06 	l.jal 85b8 <__i2b>
    61a4:	d7 e2 2f a4 	l.sw 0xffffffa4(r2),r5
    61a8:	84 c2 ff c0 	l.lwz r6,0xffffffc0(r2)
    61ac:	e0 c6 70 00 	l.add r6,r6,r14
    61b0:	d7 e2 5f 7c 	l.sw 0xffffff7c(r2),r11
    61b4:	03 ff fe b3 	l.j 5c80 <__dtoa_r+0xa28>
    61b8:	d7 e2 37 c0 	l.sw 0xffffffc0(r2),r6
    61bc:	03 ff fe 5a 	l.j 5b24 <__dtoa_r+0x8cc>
    61c0:	9c 80 00 01 	l.addi r4,r0,0x1
    61c4:	9c e0 00 00 	l.addi r7,r0,0x0
    61c8:	d7 e2 3f a8 	l.sw 0xffffffa8(r2),r7
    61cc:	85 02 ff c4 	l.lwz r8,0xffffffc4(r2)
    61d0:	e0 68 c0 00 	l.add r3,r8,r24
    61d4:	9d c3 00 01 	l.addi r14,r3,0x1
    61d8:	d7 e2 1f b4 	l.sw 0xffffffb4(r2),r3
    61dc:	bd 4e 00 00 	l.sfgtsi r14,0x0
    61e0:	13 ff fd 33 	l.bf 56ac <__dtoa_r+0x454>
    61e4:	ab 8e 00 00 	l.ori r28,r14,0x0
    61e8:	03 ff fd 31 	l.j 56ac <__dtoa_r+0x454>
    61ec:	9d c0 00 01 	l.addi r14,r0,0x1
    61f0:	9c 60 00 00 	l.addi r3,r0,0x0
    61f4:	9d c0 00 12 	l.addi r14,r0,0x12
    61f8:	03 ff fd 2e 	l.j 56b0 <__dtoa_r+0x458>
    61fc:	d7 e2 1f c4 	l.sw 0xffffffc4(r2),r3
    6200:	04 00 13 81 	l.jal b004 <___floatsidf>
    6204:	a8 98 00 00 	l.ori r4,r24,0x0
    6208:	84 a2 ff 70 	l.lwz r5,0xffffff70(r2)
    620c:	84 c2 ff 74 	l.lwz r6,0xffffff74(r2)
    6210:	84 62 ff d0 	l.lwz r3,0xffffffd0(r2)
    6214:	84 82 ff d4 	l.lwz r4,0xffffffd4(r2)
    6218:	04 00 12 ab 	l.jal acc4 <___nedf2>
    621c:	15 00 00 00 	l.nop 0x0
    6220:	bc 2b 00 00 	l.sfnei r11,0x0
    6224:	0f ff fc dd 	l.bnf 5598 <__dtoa_r+0x340>
    6228:	9d 00 00 01 	l.addi r8,r0,0x1
    622c:	03 ff fc db 	l.j 5598 <__dtoa_r+0x340>
    6230:	9f 18 ff ff 	l.addi r24,r24,0xffffffff
    6234:	84 a2 ff 98 	l.lwz r5,0xffffff98(r2)
    6238:	84 c2 ff 9c 	l.lwz r6,0xffffff9c(r2)
    623c:	84 e2 ff 70 	l.lwz r7,0xffffff70(r2)
    6240:	85 02 ff 74 	l.lwz r8,0xffffff74(r2)
    6244:	04 00 11 44 	l.jal a754 <___divdf3>
    6248:	a8 72 00 00 	l.ori r3,r18,0x0
    624c:	84 82 ff d0 	l.lwz r4,0xffffffd0(r2)
    6250:	84 a2 ff d4 	l.lwz r5,0xffffffd4(r2)
    6254:	d7 e2 27 98 	l.sw 0xffffff98(r2),r4
    6258:	d7 e2 2f 9c 	l.sw 0xffffff9c(r2),r5
    625c:	03 ff fd 40 	l.j 575c <__dtoa_r+0x504>
    6260:	84 82 ff ac 	l.lwz r4,0xffffffac(r2)
    6264:	13 ff fe e8 	l.bf 5e04 <__dtoa_r+0xbac>
    6268:	84 c2 ff c0 	l.lwz r6,0xffffffc0(r2)
    626c:	84 82 ff a4 	l.lwz r4,0xffffffa4(r2)
    6270:	9d ce 00 1c 	l.addi r14,r14,0x1c
    6274:	84 a2 ff c0 	l.lwz r5,0xffffffc0(r2)
    6278:	e0 84 70 00 	l.add r4,r4,r14
    627c:	e0 a5 70 00 	l.add r5,r5,r14
    6280:	d7 e2 27 a4 	l.sw 0xffffffa4(r2),r4
    6284:	03 ff fe de 	l.j 5dfc <__dtoa_r+0xba4>
    6288:	d7 e2 2f c0 	l.sw 0xffffffc0(r2),r5
    628c:	bc 07 00 00 	l.sfeqi r7,0x0
    6290:	10 00 00 c9 	l.bf 65b4 <__dtoa_r+0x135c>
    6294:	9d c0 00 01 	l.addi r14,r0,0x1
    6298:	bd ac 00 00 	l.sflesi r12,0x0
    629c:	0c 00 01 ce 	l.bnf 69d4 <__dtoa_r+0x177c>
    62a0:	84 82 ff 7c 	l.lwz r4,0xffffff7c(r2)
    62a4:	85 02 ff 7c 	l.lwz r8,0xffffff7c(r2)
    62a8:	bc 0a 00 00 	l.sfeqi r10,0x0
    62ac:	0c 00 01 b8 	l.bnf 698c <__dtoa_r+0x1734>
    62b0:	d7 e2 47 80 	l.sw 0xffffff80(r2),r8
    62b4:	84 e2 ff 9c 	l.lwz r7,0xffffff9c(r2)
    62b8:	9d c0 00 01 	l.addi r14,r0,0x1
    62bc:	a4 e7 00 01 	l.andi r7,r7,0x1
    62c0:	d7 e2 3f 40 	l.sw 0xffffff40(r2),r7
    62c4:	84 82 ff 78 	l.lwz r4,0xffffff78(r2)
    62c8:	07 ff fb 49 	l.jal 4fec <_quorem>
    62cc:	a8 7e 00 00 	l.ori r3,r30,0x0
    62d0:	84 82 ff 80 	l.lwz r4,0xffffff80(r2)
    62d4:	a8 7e 00 00 	l.ori r3,r30,0x0
    62d8:	04 00 0a 04 	l.jal 8ae8 <___mcmp>
    62dc:	9e 4b 00 30 	l.addi r18,r11,0x30
    62e0:	84 82 ff 78 	l.lwz r4,0xffffff78(r2)
    62e4:	a8 74 00 00 	l.ori r3,r20,0x0
    62e8:	a9 4b 00 00 	l.ori r10,r11,0x0
    62ec:	04 00 0a 1e 	l.jal 8b64 <___mdiff>
    62f0:	84 a2 ff 7c 	l.lwz r5,0xffffff7c(r2)
    62f4:	84 6b 00 0c 	l.lwz r3,0xc(r11)
    62f8:	bc 23 00 00 	l.sfnei r3,0x0
    62fc:	0c 00 00 3d 	l.bnf 63f0 <__dtoa_r+0x1198>
    6300:	a9 8b 00 00 	l.ori r12,r11,0x0
    6304:	9e 00 00 01 	l.addi r16,r0,0x1
    6308:	a8 74 00 00 	l.ori r3,r20,0x0
    630c:	04 00 07 9d 	l.jal 8180 <__Bfree>
    6310:	a8 8c 00 00 	l.ori r4,r12,0x0
    6314:	e0 70 d0 04 	l.or r3,r16,r26
    6318:	bc 23 00 00 	l.sfnei r3,0x0
    631c:	10 00 00 06 	l.bf 6334 <__dtoa_r+0x10dc>
    6320:	bd 8a 00 00 	l.sfltsi r10,0x0
    6324:	85 02 ff 40 	l.lwz r8,0xffffff40(r2)
    6328:	bc 28 00 00 	l.sfnei r8,0x0
    632c:	0c 00 01 b6 	l.bnf 6a04 <__dtoa_r+0x17ac>
    6330:	bd 8a 00 00 	l.sfltsi r10,0x0
    6334:	10 00 01 7a 	l.bf 691c <__dtoa_r+0x16c4>
    6338:	e0 aa d0 04 	l.or r5,r10,r26
    633c:	bc 25 00 00 	l.sfnei r5,0x0
    6340:	10 00 00 06 	l.bf 6358 <__dtoa_r+0x1100>
    6344:	bd b0 00 00 	l.sflesi r16,0x0
    6348:	84 62 ff 40 	l.lwz r3,0xffffff40(r2)
    634c:	bc 23 00 00 	l.sfnei r3,0x0
    6350:	0c 00 01 73 	l.bnf 691c <__dtoa_r+0x16c4>
    6354:	bd b0 00 00 	l.sflesi r16,0x0
    6358:	0c 00 01 a4 	l.bnf 69e8 <__dtoa_r+0x1790>
    635c:	e4 2e e0 00 	l.sfne r14,r28
    6360:	d8 16 90 00 	l.sb 0x0(r22),r18
    6364:	0c 00 00 9d 	l.bnf 65d8 <__dtoa_r+0x1380>
    6368:	9e d6 00 01 	l.addi r22,r22,0x1
    636c:	a8 9e 00 00 	l.ori r4,r30,0x0
    6370:	9c a0 00 0a 	l.addi r5,r0,0xa
    6374:	9c c0 00 00 	l.addi r6,r0,0x0
    6378:	04 00 07 92 	l.jal 81c0 <__multadd>
    637c:	a8 74 00 00 	l.ori r3,r20,0x0
    6380:	84 a2 ff 80 	l.lwz r5,0xffffff80(r2)
    6384:	84 c2 ff 7c 	l.lwz r6,0xffffff7c(r2)
    6388:	e4 25 30 00 	l.sfne r5,r6
    638c:	10 00 00 0b 	l.bf 63b8 <__dtoa_r+0x1160>
    6390:	ab cb 00 00 	l.ori r30,r11,0x0
    6394:	a8 86 00 00 	l.ori r4,r6,0x0
    6398:	a8 74 00 00 	l.ori r3,r20,0x0
    639c:	9c a0 00 0a 	l.addi r5,r0,0xa
    63a0:	9c c0 00 00 	l.addi r6,r0,0x0
    63a4:	04 00 07 87 	l.jal 81c0 <__multadd>
    63a8:	9d ce 00 01 	l.addi r14,r14,0x1
    63ac:	d7 e2 5f 7c 	l.sw 0xffffff7c(r2),r11
    63b0:	03 ff ff c5 	l.j 62c4 <__dtoa_r+0x106c>
    63b4:	d7 e2 5f 80 	l.sw 0xffffff80(r2),r11
    63b8:	84 82 ff 80 	l.lwz r4,0xffffff80(r2)
    63bc:	a8 74 00 00 	l.ori r3,r20,0x0
    63c0:	9c a0 00 0a 	l.addi r5,r0,0xa
    63c4:	9c c0 00 00 	l.addi r6,r0,0x0
    63c8:	04 00 07 7e 	l.jal 81c0 <__multadd>
    63cc:	9d ce 00 01 	l.addi r14,r14,0x1
    63d0:	84 82 ff 7c 	l.lwz r4,0xffffff7c(r2)
    63d4:	a8 74 00 00 	l.ori r3,r20,0x0
    63d8:	9c a0 00 0a 	l.addi r5,r0,0xa
    63dc:	d7 e2 5f 80 	l.sw 0xffffff80(r2),r11
    63e0:	04 00 07 78 	l.jal 81c0 <__multadd>
    63e4:	9c c0 00 00 	l.addi r6,r0,0x0
    63e8:	03 ff ff b7 	l.j 62c4 <__dtoa_r+0x106c>
    63ec:	d7 e2 5f 7c 	l.sw 0xffffff7c(r2),r11
    63f0:	a8 7e 00 00 	l.ori r3,r30,0x0
    63f4:	04 00 09 bd 	l.jal 8ae8 <___mcmp>
    63f8:	a8 8b 00 00 	l.ori r4,r11,0x0
    63fc:	03 ff ff c3 	l.j 6308 <__dtoa_r+0x10b0>
    6400:	aa 0b 00 00 	l.ori r16,r11,0x0
    6404:	9d 42 ff f0 	l.addi r10,r2,0xfffffff0
    6408:	18 e0 00 00 	l.movhi r7,0x0
    640c:	a8 e7 cd d8 	l.ori r7,r7,0xcdd8
    6410:	85 07 00 04 	l.lwz r8,0x4(r7)
    6414:	84 e7 00 00 	l.lwz r7,0x0(r7)
    6418:	04 00 0f 14 	l.jal a068 <___adddf3>
    641c:	a8 6a 00 00 	l.ori r3,r10,0x0
    6420:	84 a2 ff f0 	l.lwz r5,0xfffffff0(r2)
    6424:	84 c2 ff f4 	l.lwz r6,0xfffffff4(r2)
    6428:	03 ff fe 04 	l.j 5c38 <__dtoa_r+0x9e0>
    642c:	15 00 00 00 	l.nop 0x0
    6430:	18 80 00 00 	l.movhi r4,0x0
    6434:	a8 84 ce a8 	l.ori r4,r4,0xcea8
    6438:	e0 a5 20 00 	l.add r5,r5,r4
    643c:	84 e2 ff 88 	l.lwz r7,0xffffff88(r2)
    6440:	85 02 ff 8c 	l.lwz r8,0xffffff8c(r2)
    6444:	84 c5 00 04 	l.lwz r6,0x4(r5)
    6448:	84 a5 00 00 	l.lwz r5,0x0(r5)
    644c:	04 00 0f 50 	l.jal a18c <___muldf3>
    6450:	a8 72 00 00 	l.ori r3,r18,0x0
    6454:	84 a2 ff d0 	l.lwz r5,0xffffffd0(r2)
    6458:	84 c2 ff d4 	l.lwz r6,0xffffffd4(r2)
    645c:	19 80 00 00 	l.movhi r12,0x0
    6460:	a9 8c ce 08 	l.ori r12,r12,0xce08
    6464:	d7 e2 2f 88 	l.sw 0xffffff88(r2),r5
    6468:	d7 e2 37 8c 	l.sw 0xffffff8c(r2),r6
    646c:	00 00 00 0d 	l.j 64a0 <__dtoa_r+0x1248>
    6470:	9d c0 00 01 	l.addi r14,r0,0x1
    6474:	84 ec 00 00 	l.lwz r7,0x0(r12)
    6478:	85 0c 00 04 	l.lwz r8,0x4(r12)
    647c:	84 a2 ff 4c 	l.lwz r5,0xffffff4c(r2)
    6480:	84 c2 ff 50 	l.lwz r6,0xffffff50(r2)
    6484:	04 00 0f 42 	l.jal a18c <___muldf3>
    6488:	a8 72 00 00 	l.ori r3,r18,0x0
    648c:	84 e2 ff d0 	l.lwz r7,0xffffffd0(r2)
    6490:	85 02 ff d4 	l.lwz r8,0xffffffd4(r2)
    6494:	9d ce 00 01 	l.addi r14,r14,0x1
    6498:	d7 e2 3f 98 	l.sw 0xffffff98(r2),r7
    649c:	d7 e2 47 9c 	l.sw 0xffffff9c(r2),r8
    64a0:	84 62 ff 98 	l.lwz r3,0xffffff98(r2)
    64a4:	84 82 ff 9c 	l.lwz r4,0xffffff9c(r2)
    64a8:	04 00 13 6e 	l.jal b260 <___fixdfsi>
    64ac:	15 00 00 00 	l.nop 0x0
    64b0:	a9 4b 00 00 	l.ori r10,r11,0x0
    64b4:	a8 8b 00 00 	l.ori r4,r11,0x0
    64b8:	04 00 12 d3 	l.jal b004 <___floatsidf>
    64bc:	a8 72 00 00 	l.ori r3,r18,0x0
    64c0:	84 a2 ff 98 	l.lwz r5,0xffffff98(r2)
    64c4:	84 c2 ff 9c 	l.lwz r6,0xffffff9c(r2)
    64c8:	84 e2 ff d0 	l.lwz r7,0xffffffd0(r2)
    64cc:	85 02 ff d4 	l.lwz r8,0xffffffd4(r2)
    64d0:	04 00 0f 09 	l.jal a0f4 <___subdf3>
    64d4:	9c 62 ff d8 	l.addi r3,r2,0xffffffd8
    64d8:	84 c2 ff d8 	l.lwz r6,0xffffffd8(r2)
    64dc:	84 e2 ff dc 	l.lwz r7,0xffffffdc(r2)
    64e0:	9c 8a 00 30 	l.addi r4,r10,0x30
    64e4:	d7 e2 37 4c 	l.sw 0xffffff4c(r2),r6
    64e8:	d7 e2 3f 50 	l.sw 0xffffff50(r2),r7
    64ec:	d8 16 20 00 	l.sb 0x0(r22),r4
    64f0:	e4 2e e0 00 	l.sfne r14,r28
    64f4:	13 ff ff e0 	l.bf 6474 <__dtoa_r+0x121c>
    64f8:	9e d6 00 01 	l.addi r22,r22,0x1
    64fc:	19 40 00 00 	l.movhi r10,0x0
    6500:	a9 4a ce 20 	l.ori r10,r10,0xce20
    6504:	84 a2 ff 88 	l.lwz r5,0xffffff88(r2)
    6508:	84 c2 ff 8c 	l.lwz r6,0xffffff8c(r2)
    650c:	84 ea 00 00 	l.lwz r7,0x0(r10)
    6510:	85 0a 00 04 	l.lwz r8,0x4(r10)
    6514:	04 00 0e d5 	l.jal a068 <___adddf3>
    6518:	a8 72 00 00 	l.ori r3,r18,0x0
    651c:	84 62 ff d0 	l.lwz r3,0xffffffd0(r2)
    6520:	84 82 ff d4 	l.lwz r4,0xffffffd4(r2)
    6524:	84 a2 ff 4c 	l.lwz r5,0xffffff4c(r2)
    6528:	84 c2 ff 50 	l.lwz r6,0xffffff50(r2)
    652c:	04 00 12 4f 	l.jal ae68 <___ltdf2>
    6530:	15 00 00 00 	l.nop 0x0
    6534:	bd 8b 00 00 	l.sfltsi r11,0x0
    6538:	13 ff fe d1 	l.bf 607c <__dtoa_r+0xe24>
    653c:	15 00 00 00 	l.nop 0x0
    6540:	84 aa 00 00 	l.lwz r5,0x0(r10)
    6544:	84 ca 00 04 	l.lwz r6,0x4(r10)
    6548:	84 e2 ff 88 	l.lwz r7,0xffffff88(r2)
    654c:	85 02 ff 8c 	l.lwz r8,0xffffff8c(r2)
    6550:	04 00 0e e9 	l.jal a0f4 <___subdf3>
    6554:	9c 62 ff d8 	l.addi r3,r2,0xffffffd8
    6558:	84 a2 ff 4c 	l.lwz r5,0xffffff4c(r2)
    655c:	84 c2 ff 50 	l.lwz r6,0xffffff50(r2)
    6560:	84 62 ff d8 	l.lwz r3,0xffffffd8(r2)
    6564:	84 82 ff dc 	l.lwz r4,0xffffffdc(r2)
    6568:	04 00 11 fa 	l.jal ad50 <___gtdf2>
    656c:	15 00 00 00 	l.nop 0x0
    6570:	bd 4b 00 00 	l.sfgtsi r11,0x0
    6574:	0f ff fd 4b 	l.bnf 5aa0 <__dtoa_r+0x848>
    6578:	15 00 00 00 	l.nop 0x0
    657c:	9e d6 ff ff 	l.addi r22,r22,0xffffffff
    6580:	90 76 00 00 	l.lbs r3,0x0(r22)
    6584:	bc 23 00 30 	l.sfnei r3,0x30
    6588:	0f ff ff fd 	l.bnf 657c <__dtoa_r+0x1324>
    658c:	15 00 00 00 	l.nop 0x0
    6590:	03 ff fe 51 	l.j 5ed4 <__dtoa_r+0xc7c>
    6594:	9e d6 00 01 	l.addi r22,r22,0x1
    6598:	a8 9e 00 00 	l.ori r4,r30,0x0
    659c:	a8 74 00 00 	l.ori r3,r20,0x0
    65a0:	9c a0 00 0a 	l.addi r5,r0,0xa
    65a4:	9c c0 00 00 	l.addi r6,r0,0x0
    65a8:	04 00 07 06 	l.jal 81c0 <__multadd>
    65ac:	9d ce 00 01 	l.addi r14,r14,0x1
    65b0:	ab cb 00 00 	l.ori r30,r11,0x0
    65b4:	84 82 ff 78 	l.lwz r4,0xffffff78(r2)
    65b8:	a8 7e 00 00 	l.ori r3,r30,0x0
    65bc:	07 ff fa 8c 	l.jal 4fec <_quorem>
    65c0:	a9 56 00 00 	l.ori r10,r22,0x0
    65c4:	9e 4b 00 30 	l.addi r18,r11,0x30
    65c8:	9e d6 00 01 	l.addi r22,r22,0x1
    65cc:	e5 8e e0 00 	l.sflts r14,r28
    65d0:	13 ff ff f2 	l.bf 6598 <__dtoa_r+0x1340>
    65d4:	d8 0a 90 00 	l.sb 0x0(r10),r18
    65d8:	a8 9e 00 00 	l.ori r4,r30,0x0
    65dc:	a8 74 00 00 	l.ori r3,r20,0x0
    65e0:	04 00 08 e8 	l.jal 8980 <__lshift>
    65e4:	9c a0 00 01 	l.addi r5,r0,0x1
    65e8:	84 82 ff 78 	l.lwz r4,0xffffff78(r2)
    65ec:	ab cb 00 00 	l.ori r30,r11,0x0
    65f0:	04 00 09 3e 	l.jal 8ae8 <___mcmp>
    65f4:	a8 6b 00 00 	l.ori r3,r11,0x0
    65f8:	bd 4b 00 00 	l.sfgtsi r11,0x0
    65fc:	10 00 00 07 	l.bf 6618 <__dtoa_r+0x13c0>
    6600:	bc 2b 00 00 	l.sfnei r11,0x0
    6604:	10 00 00 13 	l.bf 6650 <__dtoa_r+0x13f8>
    6608:	a5 72 00 01 	l.andi r11,r18,0x1
    660c:	bc 2b 00 00 	l.sfnei r11,0x0
    6610:	0c 00 00 10 	l.bnf 6650 <__dtoa_r+0x13f8>
    6614:	15 00 00 00 	l.nop 0x0
    6618:	9e d6 ff ff 	l.addi r22,r22,0xffffffff
    661c:	90 76 00 00 	l.lbs r3,0x0(r22)
    6620:	bc 23 00 39 	l.sfnei r3,0x39
    6624:	10 00 00 55 	l.bf 6778 <__dtoa_r+0x1520>
    6628:	84 e2 ff 64 	l.lwz r7,0xffffff64(r2)
    662c:	e4 36 38 00 	l.sfne r22,r7
    6630:	13 ff ff fb 	l.bf 661c <__dtoa_r+0x13c4>
    6634:	9e d6 ff ff 	l.addi r22,r22,0xffffffff
    6638:	9e d6 00 01 	l.addi r22,r22,0x1
    663c:	9d 00 00 31 	l.addi r8,r0,0x31
    6640:	9f 18 00 01 	l.addi r24,r24,0x1
    6644:	d8 16 40 00 	l.sb 0x0(r22),r8
    6648:	03 ff fe 0b 	l.j 5e74 <__dtoa_r+0xc1c>
    664c:	9e d6 00 01 	l.addi r22,r22,0x1
    6650:	9e d6 ff ff 	l.addi r22,r22,0xffffffff
    6654:	90 76 00 00 	l.lbs r3,0x0(r22)
    6658:	bc 23 00 30 	l.sfnei r3,0x30
    665c:	0f ff ff fd 	l.bnf 6650 <__dtoa_r+0x13f8>
    6660:	15 00 00 00 	l.nop 0x0
    6664:	03 ff fe 04 	l.j 5e74 <__dtoa_r+0xc1c>
    6668:	9e d6 00 01 	l.addi r22,r22,0x1
    666c:	a8 a6 00 00 	l.ori r5,r6,0x0
    6670:	04 00 08 c4 	l.jal 8980 <__lshift>
    6674:	a8 74 00 00 	l.ori r3,r20,0x0
    6678:	03 ff fd e6 	l.j 5e10 <__dtoa_r+0xbb8>
    667c:	ab cb 00 00 	l.ori r30,r11,0x0
    6680:	84 a2 ff 78 	l.lwz r5,0xffffff78(r2)
    6684:	84 65 00 10 	l.lwz r3,0x10(r5)
    6688:	b8 63 00 02 	l.slli r3,r3,0x2
    668c:	e0 63 28 00 	l.add r3,r3,r5
    6690:	04 00 07 5d 	l.jal 8404 <__hi0bits>
    6694:	84 63 00 10 	l.lwz r3,0x10(r3)
    6698:	84 c2 ff a4 	l.lwz r6,0xffffffa4(r2)
    669c:	03 ff fd c8 	l.j 5dbc <__dtoa_r+0xb64>
    66a0:	e0 86 58 02 	l.sub r4,r6,r11
    66a4:	a8 8b 00 00 	l.ori r4,r11,0x0
    66a8:	a8 74 00 00 	l.ori r3,r20,0x0
    66ac:	04 00 08 57 	l.jal 8808 <__pow5mult>
    66b0:	a8 a7 00 00 	l.ori r5,r7,0x0
    66b4:	03 ff fd a2 	l.j 5d3c <__dtoa_r+0xae4>
    66b8:	d7 e2 5f 78 	l.sw 0xffffff78(r2),r11
    66bc:	04 00 09 0b 	l.jal 8ae8 <___mcmp>
    66c0:	a8 7e 00 00 	l.ori r3,r30,0x0
    66c4:	bd 6b 00 00 	l.sfgesi r11,0x0
    66c8:	13 ff fd db 	l.bf 5e34 <__dtoa_r+0xbdc>
    66cc:	9c 80 00 00 	l.addi r4,r0,0x0
    66d0:	a8 9e 00 00 	l.ori r4,r30,0x0
    66d4:	a8 74 00 00 	l.ori r3,r20,0x0
    66d8:	9c a0 00 0a 	l.addi r5,r0,0xa
    66dc:	9c c0 00 00 	l.addi r6,r0,0x0
    66e0:	04 00 06 b8 	l.jal 81c0 <__multadd>
    66e4:	9f 18 ff ff 	l.addi r24,r24,0xffffffff
    66e8:	84 62 ff a8 	l.lwz r3,0xffffffa8(r2)
    66ec:	bc 03 00 00 	l.sfeqi r3,0x0
    66f0:	0c 00 00 04 	l.bnf 6700 <__dtoa_r+0x14a8>
    66f4:	ab cb 00 00 	l.ori r30,r11,0x0
    66f8:	03 ff fd ce 	l.j 5e30 <__dtoa_r+0xbd8>
    66fc:	87 82 ff b4 	l.lwz r28,0xffffffb4(r2)
    6700:	84 82 ff 7c 	l.lwz r4,0xffffff7c(r2)
    6704:	a8 74 00 00 	l.ori r3,r20,0x0
    6708:	9c a0 00 0a 	l.addi r5,r0,0xa
    670c:	04 00 06 ad 	l.jal 81c0 <__multadd>
    6710:	9c c0 00 00 	l.addi r6,r0,0x0
    6714:	87 82 ff b4 	l.lwz r28,0xffffffb4(r2)
    6718:	03 ff fd c6 	l.j 5e30 <__dtoa_r+0xbd8>
    671c:	d7 e2 5f 7c 	l.sw 0xffffff7c(r2),r11
    6720:	a8 a7 00 00 	l.ori r5,r7,0x0
    6724:	04 00 08 97 	l.jal 8980 <__lshift>
    6728:	a8 74 00 00 	l.ori r3,r20,0x0
    672c:	03 ff fd bd 	l.j 5e20 <__dtoa_r+0xbc8>
    6730:	d7 e2 5f 78 	l.sw 0xffffff78(r2),r11
    6734:	84 82 ff 80 	l.lwz r4,0xffffff80(r2)
    6738:	04 00 06 92 	l.jal 8180 <__Bfree>
    673c:	a8 74 00 00 	l.ori r3,r20,0x0
    6740:	03 ff fd e3 	l.j 5ecc <__dtoa_r+0xc74>
    6744:	84 82 ff 7c 	l.lwz r4,0xffffff7c(r2)
    6748:	9d 5c ff ff 	l.addi r10,r28,0xffffffff
    674c:	e5 86 50 00 	l.sflts r6,r10
    6750:	10 00 00 5c 	l.bf 68c0 <__dtoa_r+0x1668>
    6754:	84 e2 ff bc 	l.lwz r7,0xffffffbc(r2)
    6758:	e2 06 50 02 	l.sub r16,r6,r10
    675c:	bd 7c 00 00 	l.sfgesi r28,0x0
    6760:	13 ff fe 8c 	l.bf 6190 <__dtoa_r+0xf38>
    6764:	a9 dc 00 00 	l.ori r14,r28,0x0
    6768:	84 62 ff c0 	l.lwz r3,0xffffffc0(r2)
    676c:	9d c0 00 00 	l.addi r14,r0,0x0
    6770:	03 ff fe 88 	l.j 6190 <__dtoa_r+0xf38>
    6774:	e1 83 e0 02 	l.sub r12,r3,r28
    6778:	8c 76 00 00 	l.lbz r3,0x0(r22)
    677c:	a8 96 00 00 	l.ori r4,r22,0x0
    6780:	9c 63 00 01 	l.addi r3,r3,0x1
    6784:	9e d6 00 01 	l.addi r22,r22,0x1
    6788:	03 ff fd bb 	l.j 5e74 <__dtoa_r+0xc1c>
    678c:	d8 04 18 00 	l.sb 0x0(r4),r3
    6790:	18 80 00 00 	l.movhi r4,0x0
    6794:	a8 84 ce 88 	l.ori r4,r4,0xce88
    6798:	84 e4 00 20 	l.lwz r7,0x20(r4)
    679c:	85 04 00 24 	l.lwz r8,0x24(r4)
    67a0:	84 a2 ff 98 	l.lwz r5,0xffffff98(r2)
    67a4:	84 c2 ff 9c 	l.lwz r6,0xffffff9c(r2)
    67a8:	04 00 0f eb 	l.jal a754 <___divdf3>
    67ac:	a8 72 00 00 	l.ori r3,r18,0x0
    67b0:	84 e2 ff d0 	l.lwz r7,0xffffffd0(r2)
    67b4:	85 02 ff d4 	l.lwz r8,0xffffffd4(r2)
    67b8:	a5 4a 00 0f 	l.andi r10,r10,0xf
    67bc:	d7 e2 3f 98 	l.sw 0xffffff98(r2),r7
    67c0:	d7 e2 47 9c 	l.sw 0xffffff9c(r2),r8
    67c4:	03 ff fe 50 	l.j 6104 <__dtoa_r+0xeac>
    67c8:	9d c0 00 03 	l.addi r14,r0,0x3
    67cc:	18 c0 00 00 	l.movhi r6,0x0
    67d0:	a8 c6 ce b0 	l.ori r6,r6,0xceb0
    67d4:	b8 a3 00 03 	l.slli r5,r3,0x3
    67d8:	b9 50 00 84 	l.srai r10,r16,0x4
    67dc:	84 e2 ff 98 	l.lwz r7,0xffffff98(r2)
    67e0:	85 02 ff 9c 	l.lwz r8,0xffffff9c(r2)
    67e4:	e0 a5 30 00 	l.add r5,r5,r6
    67e8:	84 c5 00 04 	l.lwz r6,0x4(r5)
    67ec:	84 a5 00 00 	l.lwz r5,0x0(r5)
    67f0:	04 00 0e 67 	l.jal a18c <___muldf3>
    67f4:	a8 72 00 00 	l.ori r3,r18,0x0
    67f8:	84 e2 ff d0 	l.lwz r7,0xffffffd0(r2)
    67fc:	85 02 ff d4 	l.lwz r8,0xffffffd4(r2)
    6800:	bc 0a 00 00 	l.sfeqi r10,0x0
    6804:	d7 e2 3f 98 	l.sw 0xffffff98(r2),r7
    6808:	d7 e2 47 9c 	l.sw 0xffffff9c(r2),r8
    680c:	13 ff fb d3 	l.bf 5758 <__dtoa_r+0x500>
    6810:	a4 6a 00 01 	l.andi r3,r10,0x1
    6814:	19 80 00 00 	l.movhi r12,0x0
    6818:	a9 8c ce 88 	l.ori r12,r12,0xce88
    681c:	00 00 00 08 	l.j 683c <__dtoa_r+0x15e4>
    6820:	bc 03 00 00 	l.sfeqi r3,0x0
    6824:	b9 4a 00 81 	l.srai r10,r10,0x1
    6828:	bc 0a 00 00 	l.sfeqi r10,0x0
    682c:	13 ff fb cb 	l.bf 5758 <__dtoa_r+0x500>
    6830:	9d 8c 00 08 	l.addi r12,r12,0x8
    6834:	a4 6a 00 01 	l.andi r3,r10,0x1
    6838:	bc 03 00 00 	l.sfeqi r3,0x0
    683c:	13 ff ff fa 	l.bf 6824 <__dtoa_r+0x15cc>
    6840:	15 00 00 00 	l.nop 0x0
    6844:	84 e2 ff 98 	l.lwz r7,0xffffff98(r2)
    6848:	85 02 ff 9c 	l.lwz r8,0xffffff9c(r2)
    684c:	84 ac 00 00 	l.lwz r5,0x0(r12)
    6850:	84 cc 00 04 	l.lwz r6,0x4(r12)
    6854:	04 00 0e 4e 	l.jal a18c <___muldf3>
    6858:	a8 72 00 00 	l.ori r3,r18,0x0
    685c:	84 62 ff d0 	l.lwz r3,0xffffffd0(r2)
    6860:	84 82 ff d4 	l.lwz r4,0xffffffd4(r2)
    6864:	d7 e2 1f 98 	l.sw 0xffffff98(r2),r3
    6868:	d7 e2 27 9c 	l.sw 0xffffff9c(r2),r4
    686c:	03 ff ff ee 	l.j 6824 <__dtoa_r+0x15cc>
    6870:	9d ce 00 01 	l.addi r14,r14,0x1
    6874:	84 a2 ff bc 	l.lwz r5,0xffffffbc(r2)
    6878:	a8 9e 00 00 	l.ori r4,r30,0x0
    687c:	04 00 07 e3 	l.jal 8808 <__pow5mult>
    6880:	a8 74 00 00 	l.ori r3,r20,0x0
    6884:	03 ff fd 27 	l.j 5d20 <__dtoa_r+0xac8>
    6888:	ab cb 00 00 	l.ori r30,r11,0x0
    688c:	a8 74 00 00 	l.ori r3,r20,0x0
    6890:	9c a0 00 05 	l.addi r5,r0,0x5
    6894:	04 00 06 4b 	l.jal 81c0 <__multadd>
    6898:	9c c0 00 00 	l.addi r6,r0,0x0
    689c:	d7 e2 5f 78 	l.sw 0xffffff78(r2),r11
    68a0:	a8 7e 00 00 	l.ori r3,r30,0x0
    68a4:	04 00 08 91 	l.jal 8ae8 <___mcmp>
    68a8:	a8 8b 00 00 	l.ori r4,r11,0x0
    68ac:	03 ff fc bb 	l.j 5b98 <__dtoa_r+0x940>
    68b0:	bd ab 00 00 	l.sflesi r11,0x0
    68b4:	84 82 ff c8 	l.lwz r4,0xffffffc8(r2)
    68b8:	03 ff fe 36 	l.j 6190 <__dtoa_r+0xf38>
    68bc:	e1 c3 20 02 	l.sub r14,r3,r4
    68c0:	85 02 ff a0 	l.lwz r8,0xffffffa0(r2)
    68c4:	e1 4a 38 02 	l.sub r10,r10,r7
    68c8:	e0 e7 50 00 	l.add r7,r7,r10
    68cc:	e1 08 50 00 	l.add r8,r8,r10
    68d0:	86 02 ff 7c 	l.lwz r16,0xffffff7c(r2)
    68d4:	d7 e2 3f bc 	l.sw 0xffffffbc(r2),r7
    68d8:	03 ff ff a1 	l.j 675c <__dtoa_r+0x1504>
    68dc:	d7 e2 47 a0 	l.sw 0xffffffa0(r2),r8
    68e0:	03 ff ff e7 	l.j 687c <__dtoa_r+0x1624>
    68e4:	a8 aa 00 00 	l.ori r5,r10,0x0
    68e8:	04 00 07 c8 	l.jal 8808 <__pow5mult>
    68ec:	a8 b0 00 00 	l.ori r5,r16,0x0
    68f0:	a8 74 00 00 	l.ori r3,r20,0x0
    68f4:	a8 be 00 00 	l.ori r5,r30,0x0
    68f8:	d7 e2 5f 7c 	l.sw 0xffffff7c(r2),r11
    68fc:	04 00 07 3f 	l.jal 85f8 <__multiply>
    6900:	a8 8b 00 00 	l.ori r4,r11,0x0
    6904:	a8 9e 00 00 	l.ori r4,r30,0x0
    6908:	a8 74 00 00 	l.ori r3,r20,0x0
    690c:	04 00 06 1d 	l.jal 8180 <__Bfree>
    6910:	ab cb 00 00 	l.ori r30,r11,0x0
    6914:	03 ff fc ff 	l.j 5d10 <__dtoa_r+0xab8>
    6918:	84 c2 ff bc 	l.lwz r6,0xffffffbc(r2)
    691c:	bd b0 00 00 	l.sflesi r16,0x0
    6920:	10 00 00 15 	l.bf 6974 <__dtoa_r+0x171c>
    6924:	a8 9e 00 00 	l.ori r4,r30,0x0
    6928:	a8 74 00 00 	l.ori r3,r20,0x0
    692c:	04 00 08 15 	l.jal 8980 <__lshift>
    6930:	9c a0 00 01 	l.addi r5,r0,0x1
    6934:	84 82 ff 78 	l.lwz r4,0xffffff78(r2)
    6938:	ab cb 00 00 	l.ori r30,r11,0x0
    693c:	04 00 08 6b 	l.jal 8ae8 <___mcmp>
    6940:	a8 6b 00 00 	l.ori r3,r11,0x0
    6944:	bd 4b 00 00 	l.sfgtsi r11,0x0
